---
triple:          'arm64-apple-darwin'
binary-path:     ircserv
relocations:
  - { offsetInCU: 0x2D77, offset: 0x2D77, size: 0x8, addend: 0x0, symName: __ZNSt3__124__put_character_sequenceB7v160006IcNS_11char_traitsIcEEEERNS_13basic_ostreamIT_T0_EES7_PKS4_m, symObjAddr: 0x2A0, symBinAddr: 0x100003408, symSize: 0x1F4 }
  - { offsetInCU: 0x46C3, offset: 0x46C3, size: 0x8, addend: 0x0, symName: __ZNSt3__1lsB7v160006INS_11char_traitsIcEEEERNS_13basic_ostreamIcT_EES6_PKc, symObjAddr: 0x1C8, symBinAddr: 0x100003330, symSize: 0x48 }
  - { offsetInCU: 0x4709, offset: 0x4709, size: 0x8, addend: 0x0, symName: __ZNSt3__14endlB7v160006IcNS_11char_traitsIcEEEERNS_13basic_ostreamIT_T0_EES7_, symObjAddr: 0x23C, symBinAddr: 0x1000033A4, symSize: 0x58 }
  - { offsetInCU: 0x4749, offset: 0x4749, size: 0x8, addend: 0x0, symName: __ZNSt3__116__pad_and_outputB7v160006IcNS_11char_traitsIcEEEENS_19ostreambuf_iteratorIT_T0_EES6_PKS4_S8_S8_RNS_8ios_baseES4_, symObjAddr: 0x4F8, symBinAddr: 0x100003660, symSize: 0x248 }
  - { offsetInCU: 0x4818, offset: 0x4818, size: 0x8, addend: 0x0, symName: __ZNSt3__119__debug_db_insert_cB7v160006INS_12basic_stringIcNS_11char_traitsIcEENS_9allocatorIcEEEEEEvPT_, symObjAddr: 0x9B4, symBinAddr: 0x100003B1C, symSize: 0x10 }
  - { offsetInCU: 0x4849, offset: 0x4849, size: 0x8, addend: 0x0, symName: __ZNSt3__112__to_addressB7v160006IKcEEPT_S3_, symObjAddr: 0xA80, symBinAddr: 0x100003BE8, symSize: 0x14 }
  - { offsetInCU: 0x487E, offset: 0x487E, size: 0x8, addend: 0x0, symName: __ZNSt3__130__libcpp_is_constant_evaluatedB7v160006Ev, symObjAddr: 0xBAC, symBinAddr: 0x100003D14, symSize: 0xC }
  - { offsetInCU: 0x48CE, offset: 0x48CE, size: 0x8, addend: 0x0, symName: __ZNSt3__19use_facetB7v160006INS_5ctypeIcEEEERKT_RKNS_6localeE, symObjAddr: 0xD64, symBinAddr: 0x100003ECC, symSize: 0x2C }
  - { offsetInCU: 0x4D9D, offset: 0x4D9D, size: 0x8, addend: 0x0, symName: __ZNSt3__118__constexpr_strlenB7v160006EPKc, symObjAddr: 0xDFC, symBinAddr: 0x100003F64, symSize: 0x24 }
  - { offsetInCU: 0x7FFE, offset: 0x7FFE, size: 0x8, addend: 0x0, symName: _main, symObjAddr: 0x0, symBinAddr: 0x100003168, symSize: 0x1C8 }
  - { offsetInCU: 0x8057, offset: 0x8057, size: 0x8, addend: 0x0, symName: __ZNSt3__113basic_ostreamIcNS_11char_traitsIcEEElsB7v160006EPFRS3_S4_E, symObjAddr: 0x210, symBinAddr: 0x100003378, symSize: 0x2C }
  - { offsetInCU: 0x8089, offset: 0x8089, size: 0x8, addend: 0x0, symName: __ZNSt3__111char_traitsIcE6lengthEPKc, symObjAddr: 0x494, symBinAddr: 0x1000035FC, symSize: 0x48 }
  - { offsetInCU: 0x80C9, offset: 0x80C9, size: 0x8, addend: 0x0, symName: __ZNKSt3__113basic_ostreamIcNS_11char_traitsIcEEE6sentrycvbB7v160006Ev, symObjAddr: 0x4DC, symBinAddr: 0x100003644, symSize: 0x1C }
  - { offsetInCU: 0x80ED, offset: 0x80ED, size: 0x8, addend: 0x0, symName: __ZNSt3__119ostreambuf_iteratorIcNS_11char_traitsIcEEEC1B7v160006ERNS_13basic_ostreamIcS2_EE, symObjAddr: 0x740, symBinAddr: 0x1000038A8, symSize: 0x34 }
  - { offsetInCU: 0x8123, offset: 0x8123, size: 0x8, addend: 0x0, symName: __ZNKSt3__18ios_base5flagsB7v160006Ev, symObjAddr: 0x774, symBinAddr: 0x1000038DC, symSize: 0x18 }
  - { offsetInCU: 0x8149, offset: 0x8149, size: 0x8, addend: 0x0, symName: __ZNKSt3__19basic_iosIcNS_11char_traitsIcEEE4fillB7v160006Ev, symObjAddr: 0x78C, symBinAddr: 0x1000038F4, symSize: 0x64 }
  - { offsetInCU: 0x816F, offset: 0x816F, size: 0x8, addend: 0x0, symName: __ZNKSt3__119ostreambuf_iteratorIcNS_11char_traitsIcEEE6failedB7v160006Ev, symObjAddr: 0x7F0, symBinAddr: 0x100003958, symSize: 0x24 }
  - { offsetInCU: 0x8193, offset: 0x8193, size: 0x8, addend: 0x0, symName: __ZNSt3__19basic_iosIcNS_11char_traitsIcEEE8setstateB7v160006Ej, symObjAddr: 0x814, symBinAddr: 0x10000397C, symSize: 0x2C }
  - { offsetInCU: 0x81C6, offset: 0x81C6, size: 0x8, addend: 0x0, symName: __ZNKSt3__18ios_base5widthB7v160006Ev, symObjAddr: 0x840, symBinAddr: 0x1000039A8, symSize: 0x18 }
  - { offsetInCU: 0x81EC, offset: 0x81EC, size: 0x8, addend: 0x0, symName: __ZNSt3__115basic_streambufIcNS_11char_traitsIcEEE5sputnB7v160006EPKcl, symObjAddr: 0x858, symBinAddr: 0x1000039C0, symSize: 0x3C }
  - { offsetInCU: 0x822C, offset: 0x822C, size: 0x8, addend: 0x0, symName: __ZNSt3__112basic_stringIcNS_11char_traitsIcEENS_9allocatorIcEEEC1B7v160006Emc, symObjAddr: 0x894, symBinAddr: 0x1000039FC, symSize: 0x3C }
  - { offsetInCU: 0x8272, offset: 0x8272, size: 0x8, addend: 0x0, symName: __ZNKSt3__112basic_stringIcNS_11char_traitsIcEENS_9allocatorIcEEE4dataB7v160006Ev, symObjAddr: 0x8D0, symBinAddr: 0x100003A38, symSize: 0x28 }
  - { offsetInCU: 0x8296, offset: 0x8296, size: 0x8, addend: 0x0, symName: __ZNSt3__18ios_base5widthB7v160006El, symObjAddr: 0x8F8, symBinAddr: 0x100003A60, symSize: 0x2C }
  - { offsetInCU: 0x82DA, offset: 0x82DA, size: 0x8, addend: 0x0, symName: __ZNSt3__112basic_stringIcNS_11char_traitsIcEENS_9allocatorIcEEEC2B7v160006Emc, symObjAddr: 0x924, symBinAddr: 0x100003A8C, symSize: 0x54 }
  - { offsetInCU: 0x8325, offset: 0x8325, size: 0x8, addend: 0x0, symName: __ZNSt3__117__compressed_pairINS_12basic_stringIcNS_11char_traitsIcEENS_9allocatorIcEEE5__repES5_EC1B7v160006INS_18__default_init_tagESA_EEOT_OT0_, symObjAddr: 0x978, symBinAddr: 0x100003AE0, symSize: 0x3C }
  - { offsetInCU: 0x837B, offset: 0x837B, size: 0x8, addend: 0x0, symName: __ZNSt3__117__compressed_pairINS_12basic_stringIcNS_11char_traitsIcEENS_9allocatorIcEEE5__repES5_EC2B7v160006INS_18__default_init_tagESA_EEOT_OT0_, symObjAddr: 0x9C4, symBinAddr: 0x100003B2C, symSize: 0x3C }
  - { offsetInCU: 0x83D1, offset: 0x83D1, size: 0x8, addend: 0x0, symName: __ZNSt3__122__compressed_pair_elemINS_12basic_stringIcNS_11char_traitsIcEENS_9allocatorIcEEE5__repELi0ELb0EEC2B7v160006ENS_18__default_init_tagE, symObjAddr: 0xA00, symBinAddr: 0x100003B68, symSize: 0x14 }
  - { offsetInCU: 0x8403, offset: 0x8403, size: 0x8, addend: 0x0, symName: __ZNSt3__122__compressed_pair_elemINS_9allocatorIcEELi1ELb1EEC2B7v160006ENS_18__default_init_tagE, symObjAddr: 0xA14, symBinAddr: 0x100003B7C, symSize: 0x2C }
  - { offsetInCU: 0x8435, offset: 0x8435, size: 0x8, addend: 0x0, symName: __ZNSt3__19allocatorIcEC2B7v160006Ev, symObjAddr: 0xA40, symBinAddr: 0x100003BA8, symSize: 0x2C }
  - { offsetInCU: 0x845D, offset: 0x845D, size: 0x8, addend: 0x0, symName: __ZNSt3__116__non_trivial_ifILb1ENS_9allocatorIcEEEC2B7v160006Ev, symObjAddr: 0xA6C, symBinAddr: 0x100003BD4, symSize: 0x14 }
  - { offsetInCU: 0x8485, offset: 0x8485, size: 0x8, addend: 0x0, symName: __ZNKSt3__112basic_stringIcNS_11char_traitsIcEENS_9allocatorIcEEE13__get_pointerB7v160006Ev, symObjAddr: 0xA94, symBinAddr: 0x100003BFC, symSize: 0x54 }
  - { offsetInCU: 0x84A9, offset: 0x84A9, size: 0x8, addend: 0x0, symName: __ZNKSt3__112basic_stringIcNS_11char_traitsIcEENS_9allocatorIcEEE9__is_longB7v160006Ev, symObjAddr: 0xAE8, symBinAddr: 0x100003C50, symSize: 0x74 }
  - { offsetInCU: 0x84CD, offset: 0x84CD, size: 0x8, addend: 0x0, symName: __ZNKSt3__112basic_stringIcNS_11char_traitsIcEENS_9allocatorIcEEE18__get_long_pointerB7v160006Ev, symObjAddr: 0xB5C, symBinAddr: 0x100003CC4, symSize: 0x28 }
  - { offsetInCU: 0x84F1, offset: 0x84F1, size: 0x8, addend: 0x0, symName: __ZNKSt3__112basic_stringIcNS_11char_traitsIcEENS_9allocatorIcEEE19__get_short_pointerB7v160006Ev, symObjAddr: 0xB84, symBinAddr: 0x100003CEC, symSize: 0x28 }
  - { offsetInCU: 0x8515, offset: 0x8515, size: 0x8, addend: 0x0, symName: __ZNKSt3__117__compressed_pairINS_12basic_stringIcNS_11char_traitsIcEENS_9allocatorIcEEE5__repES5_E5firstB7v160006Ev, symObjAddr: 0xBB8, symBinAddr: 0x100003D20, symSize: 0x24 }
  - { offsetInCU: 0x8539, offset: 0x8539, size: 0x8, addend: 0x0, symName: __ZNKSt3__122__compressed_pair_elemINS_12basic_stringIcNS_11char_traitsIcEENS_9allocatorIcEEE5__repELi0ELb0EE5__getB7v160006Ev, symObjAddr: 0xBDC, symBinAddr: 0x100003D44, symSize: 0x14 }
  - { offsetInCU: 0x855D, offset: 0x855D, size: 0x8, addend: 0x0, symName: __ZNSt3__114pointer_traitsIPKcE10pointer_toB7v160006ERS1_, symObjAddr: 0xBF0, symBinAddr: 0x100003D58, symSize: 0x14 }
  - { offsetInCU: 0x857F, offset: 0x857F, size: 0x8, addend: 0x0, symName: __ZNSt3__119ostreambuf_iteratorIcNS_11char_traitsIcEEEC2B7v160006ERNS_13basic_ostreamIcS2_EE, symObjAddr: 0xC04, symBinAddr: 0x100003D6C, symSize: 0x68 }
  - { offsetInCU: 0x85B5, offset: 0x85B5, size: 0x8, addend: 0x0, symName: __ZNKSt3__19basic_iosIcNS_11char_traitsIcEEE5rdbufB7v160006Ev, symObjAddr: 0xC6C, symBinAddr: 0x100003DD4, symSize: 0x24 }
  - { offsetInCU: 0x85DB, offset: 0x85DB, size: 0x8, addend: 0x0, symName: __ZNKSt3__18ios_base5rdbufB7v160006Ev, symObjAddr: 0xC90, symBinAddr: 0x100003DF8, symSize: 0x18 }
  - { offsetInCU: 0x85FF, offset: 0x85FF, size: 0x8, addend: 0x0, symName: __ZNSt3__111char_traitsIcE11eq_int_typeEii, symObjAddr: 0xCA8, symBinAddr: 0x100003E10, symSize: 0x28 }
  - { offsetInCU: 0x862F, offset: 0x862F, size: 0x8, addend: 0x0, symName: __ZNSt3__111char_traitsIcE3eofEv, symObjAddr: 0xCD0, symBinAddr: 0x100003E38, symSize: 0x8 }
  - { offsetInCU: 0x8642, offset: 0x8642, size: 0x8, addend: 0x0, symName: __ZNKSt3__19basic_iosIcNS_11char_traitsIcEEE5widenB7v160006Ec, symObjAddr: 0xCD8, symBinAddr: 0x100003E40, symSize: 0x8C }
  - { offsetInCU: 0x86AE, offset: 0x86AE, size: 0x8, addend: 0x0, symName: __ZNKSt3__15ctypeIcE5widenB7v160006Ec, symObjAddr: 0xD90, symBinAddr: 0x100003EF8, symSize: 0x38 }
  - { offsetInCU: 0x86E1, offset: 0x86E1, size: 0x8, addend: 0x0, symName: __ZNSt3__18ios_base8setstateB7v160006Ej, symObjAddr: 0xDC8, symBinAddr: 0x100003F30, symSize: 0x34 }
  - { offsetInCU: 0x39, offset: 0x8F96, size: 0x8, addend: 0x0, symName: __ZN6Server16_shutdown_serverE, symObjAddr: 0x4A718, symBinAddr: 0x100014000, symSize: 0x0 }
  - { offsetInCU: 0x6E18, offset: 0xFD75, size: 0x8, addend: 0x0, symName: __ZNSt3__16copy_nB7v160006IPKcmPcEENS_9enable_ifIXsr33__is_cpp17_random_access_iteratorIT_EE5valueET1_E4typeES5_T0_S6_, symObjAddr: 0x8D6C, symBinAddr: 0x10000C09C, symSize: 0x44 }
  - { offsetInCU: 0x7DB5, offset: 0x10D12, size: 0x8, addend: 0x0, symName: __ZNSt3__1lsB7v160006IcNS_11char_traitsIcEENS_9allocatorIcEEEERNS_13basic_ostreamIT_T0_EES9_RKNS_12basic_stringIS6_S7_T1_EE, symObjAddr: 0x13A8, symBinAddr: 0x100005258, symSize: 0x4C }
  - { offsetInCU: 0x7E0D, offset: 0x10D6A, size: 0x8, addend: 0x0, symName: __ZNSt3__1eqB7v160006INS_9allocatorIcEEEEbRKNS_12basic_stringIcNS_11char_traitsIcEET_EES9_, symObjAddr: 0x1EA8, symBinAddr: 0x100005D58, symSize: 0x148 }
  - { offsetInCU: 0x8750, offset: 0x116AD, size: 0x8, addend: 0x0, symName: __ZNSt3__1rsB7v160006IcNS_11char_traitsIcEENS_9allocatorIcEEEERNS_13basic_istreamIT_T0_EES9_RNS_12basic_stringIS6_S7_T1_EE, symObjAddr: 0x2C94, symBinAddr: 0x100006B44, symSize: 0x314 }
  - { offsetInCU: 0x881D, offset: 0x1177A, size: 0x8, addend: 0x0, symName: __ZNSt3__1eqB7v160006IcNS_11char_traitsIcEENS_9allocatorIcEEEEbRKNS_12basic_stringIT_T0_T1_EEPKS6_, symObjAddr: 0x3014, symBinAddr: 0x100006EC4, symSize: 0xC0 }
  - { offsetInCU: 0x8884, offset: 0x117E1, size: 0x8, addend: 0x0, symName: __ZNSt3__1plB7v160006IcNS_11char_traitsIcEENS_9allocatorIcEEEENS_12basic_stringIT_T0_T1_EERKS9_PKS6_, symObjAddr: 0x3128, symBinAddr: 0x100006FD8, symSize: 0x11C }
  - { offsetInCU: 0x8925, offset: 0x11882, size: 0x8, addend: 0x0, symName: __ZNSt3__1neB7v160006IcNS_11char_traitsIcEENS_9allocatorIcEEEEbRKNS_12basic_stringIT_T0_T1_EEPKS6_, symObjAddr: 0x32A0, symBinAddr: 0x100007150, symSize: 0x34 }
  - { offsetInCU: 0x8988, offset: 0x118E5, size: 0x8, addend: 0x0, symName: __ZNSt3__119__debug_db_insert_cB7v160006INS_6vectorI6ClientNS_9allocatorIS2_EEEEEEvPT_, symObjAddr: 0x35EC, symBinAddr: 0x10000749C, symSize: 0x10 }
  - { offsetInCU: 0x89B9, offset: 0x11916, size: 0x8, addend: 0x0, symName: __ZNSt3__118__debug_db_erase_cB7v160006INS_6vectorI6ClientNS_9allocatorIS2_EEEEEEvPT_, symObjAddr: 0x38C4, symBinAddr: 0x100007774, symSize: 0x10 }
  - { offsetInCU: 0x89EA, offset: 0x11947, size: 0x8, addend: 0x0, symName: __ZNSt3__112__to_addressB7v160006I6ClientEEPT_S3_, symObjAddr: 0x3A08, symBinAddr: 0x1000078B8, symSize: 0x14 }
  - { offsetInCU: 0x8A1F, offset: 0x1197C, size: 0x8, addend: 0x0, symName: __ZNSt3__119__libcpp_deallocateB7v160006EPvmm, symObjAddr: 0x3B90, symBinAddr: 0x100007A34, symSize: 0x30 }
  - { offsetInCU: 0x8A68, offset: 0x119C5, size: 0x8, addend: 0x0, symName: __ZNSt3__127__do_deallocate_handle_sizeB7v160006IJEEEvPvmDpT_, symObjAddr: 0x3BC0, symBinAddr: 0x100007A64, symSize: 0x28 }
  - { offsetInCU: 0x8AA8, offset: 0x11A05, size: 0x8, addend: 0x0, symName: __ZNSt3__124__libcpp_operator_deleteB7v160006IJPvEEEvDpT_, symObjAddr: 0x3BE8, symBinAddr: 0x100007A8C, symSize: 0x24 }
  - { offsetInCU: 0x8AE0, offset: 0x11A3D, size: 0x8, addend: 0x0, symName: __ZNSt3__13maxB7v160006ImEERKT_S3_S3_, symObjAddr: 0x4414, symBinAddr: 0x1000082B8, symSize: 0x2C }
  - { offsetInCU: 0x8B23, offset: 0x11A80, size: 0x8, addend: 0x0, symName: __ZNSt3__13minB7v160006ImEERKT_S3_S3_, symObjAddr: 0x4440, symBinAddr: 0x1000082E4, symSize: 0x2C }
  - { offsetInCU: 0x8D71, offset: 0x11CCE, size: 0x8, addend: 0x0, symName: __ZNSt3__13minB7v160006ImNS_6__lessImmEEEERKT_S5_S5_T0_, symObjAddr: 0x44CC, symBinAddr: 0x100008370, symSize: 0x54 }
  - { offsetInCU: 0x8E06, offset: 0x11D63, size: 0x8, addend: 0x0, symName: __ZNSt3__120__throw_length_errorB7v160006EPKc, symObjAddr: 0x45B4, symBinAddr: 0x100008458, symSize: 0x64 }
  - { offsetInCU: 0x8E2F, offset: 0x11D8C, size: 0x8, addend: 0x0, symName: __ZNSt3__13maxB7v160006ImNS_6__lessImmEEEERKT_S5_S5_T0_, symObjAddr: 0x4698, symBinAddr: 0x10000853C, symSize: 0x54 }
  - { offsetInCU: 0x8E89, offset: 0x11DE6, size: 0x8, addend: 0x0, symName: __ZNSt3__119__allocate_at_leastB7v160006INS_9allocatorI6ClientEEEENS_19__allocation_resultINS_16allocator_traitsIT_E7pointerEEERS6_m, symObjAddr: 0x4808, symBinAddr: 0x1000086AC, symSize: 0x40 }
  - { offsetInCU: 0x8ECC, offset: 0x11E29, size: 0x8, addend: 0x0, symName: __ZNSt3__117__libcpp_allocateB7v160006Emm, symObjAddr: 0x49C0, symBinAddr: 0x100008864, symSize: 0x28 }
  - { offsetInCU: 0x8F09, offset: 0x11E66, size: 0x8, addend: 0x0, symName: __ZNSt3__121__libcpp_operator_newB7v160006IJmEEEPvDpT_, symObjAddr: 0x49E8, symBinAddr: 0x10000888C, symSize: 0x24 }
  - { offsetInCU: 0x8F44, offset: 0x11EA1, size: 0x8, addend: 0x0, symName: __ZNSt3__142__uninitialized_allocator_move_if_noexceptB7v160006INS_9allocatorI6ClientEENS_16reverse_iteratorIPS2_EES6_S6_EET2_RT_T0_T1_S7_, symObjAddr: 0x4A70, symBinAddr: 0x100008914, symSize: 0x134 }
  - { offsetInCU: 0x8FE4, offset: 0x11F41, size: 0x8, addend: 0x0, symName: __ZNSt3__14swapB7v160006IP6ClientEEvRT_S4_, symObjAddr: 0x4BF0, symBinAddr: 0x100008A94, symSize: 0x3C }
  - { offsetInCU: 0x9035, offset: 0x11F92, size: 0x8, addend: 0x0, symName: __ZNSt3__125__debug_db_invalidate_allB7v160006INS_6vectorI6ClientNS_9allocatorIS2_EEEEEEvPT_, symObjAddr: 0x4CF4, symBinAddr: 0x100008B98, symSize: 0x10 }
  - { offsetInCU: 0x9066, offset: 0x11FC3, size: 0x8, addend: 0x0, symName: __ZNSt3__122__make_exception_guardB7v160006INS_29_AllocatorDestroyRangeReverseINS_9allocatorI6ClientEENS_16reverse_iteratorIPS3_EEEEEENS_28__exception_guard_exceptionsIT_EESA_, symObjAddr: 0x4D04, symBinAddr: 0x100008BA8, symSize: 0x4C }
  - { offsetInCU: 0x909C, offset: 0x11FF9, size: 0x8, addend: 0x0, symName: __ZNSt3__1neB7v160006IP6ClientS2_EEbRKNS_16reverse_iteratorIT_EERKNS3_IT0_EE, symObjAddr: 0x4D94, symBinAddr: 0x100008C38, symSize: 0x48 }
  - { offsetInCU: 0x90E8, offset: 0x12045, size: 0x8, addend: 0x0, symName: __ZNSt3__112__to_addressB7v160006INS_16reverse_iteratorIP6ClientEEvEENS_5decayIDTclsr19__to_address_helperIT_EE6__callclsr3stdE7declvalIRKS6_EEEEE4typeES8_, symObjAddr: 0x4E10, symBinAddr: 0x100008CB4, symSize: 0x24 }
  - { offsetInCU: 0x9149, offset: 0x120A6, size: 0x8, addend: 0x0, symName: __ZNSt3__119__allocator_destroyB7v160006INS_9allocatorI6ClientEENS_16reverse_iteratorINS4_IPS2_EEEES7_EEvRT_T0_T1_, symObjAddr: 0x50FC, symBinAddr: 0x100008FA0, symSize: 0x70 }
  - { offsetInCU: 0x91AF, offset: 0x1210C, size: 0x8, addend: 0x0, symName: __ZNSt3__1neB7v160006INS_16reverse_iteratorIP6ClientEES4_EEbRKNS1_IT_EERKNS1_IT0_EE, symObjAddr: 0x51A8, symBinAddr: 0x10000904C, symSize: 0x60 }
  - { offsetInCU: 0x91FB, offset: 0x12158, size: 0x8, addend: 0x0, symName: __ZNSt3__112__to_addressB7v160006INS_16reverse_iteratorINS1_IP6ClientEEEEvEENS_5decayIDTclsr19__to_address_helperIT_EE6__callclsr3stdE7declvalIRKS7_EEEEE4typeES9_, symObjAddr: 0x5208, symBinAddr: 0x1000090AC, symSize: 0x24 }
  - { offsetInCU: 0x925C, offset: 0x121B9, size: 0x8, addend: 0x0, symName: __ZNSt3__118__constexpr_memcmpB7v160006IcEEiPKT_S3_m, symObjAddr: 0x6290, symBinAddr: 0x1000095C0, symSize: 0x34 }
  - { offsetInCU: 0x92AD, offset: 0x1220A, size: 0x8, addend: 0x0, symName: __ZNSt3__119__debug_db_insert_cB7v160006INS_6vectorINS_12basic_stringIcNS_11char_traitsIcEENS_9allocatorIcEEEENS5_IS7_EEEEEEvPT_, symObjAddr: 0x6768, symBinAddr: 0x100009A98, symSize: 0x10 }
  - { offsetInCU: 0x92DE, offset: 0x1223B, size: 0x8, addend: 0x0, symName: __ZNSt3__118__debug_db_erase_cB7v160006INS_6vectorINS_12basic_stringIcNS_11char_traitsIcEENS_9allocatorIcEEEENS5_IS7_EEEEEEvPT_, symObjAddr: 0x6A40, symBinAddr: 0x100009D70, symSize: 0x10 }
  - { offsetInCU: 0x930F, offset: 0x1226C, size: 0x8, addend: 0x0, symName: __ZNSt3__112__to_addressB7v160006INS_12basic_stringIcNS_11char_traitsIcEENS_9allocatorIcEEEEEEPT_S8_, symObjAddr: 0x6B5C, symBinAddr: 0x100009E8C, symSize: 0x14 }
  - { offsetInCU: 0x9344, offset: 0x122A1, size: 0x8, addend: 0x0, symName: __ZNSt3__125__debug_db_invalidate_allB7v160006INS_12basic_stringIcNS_11char_traitsIcEENS_9allocatorIcEEEEEEvPT_, symObjAddr: 0x74B0, symBinAddr: 0x10000A7E0, symSize: 0x10 }
  - { offsetInCU: 0x95B4, offset: 0x12511, size: 0x8, addend: 0x0, symName: __ZNSt3__119__allocate_at_leastB7v160006INS_9allocatorINS_12basic_stringIcNS_11char_traitsIcEENS1_IcEEEEEEEENS_19__allocation_resultINS_16allocator_traitsIT_E7pointerEEERSA_m, symObjAddr: 0x7DC0, symBinAddr: 0x10000B0F0, symSize: 0x40 }
  - { offsetInCU: 0x95F7, offset: 0x12554, size: 0x8, addend: 0x0, symName: __ZNSt3__142__uninitialized_allocator_move_if_noexceptB7v160006INS_9allocatorINS_12basic_stringIcNS_11char_traitsIcEENS1_IcEEEEEENS_16reverse_iteratorIPS6_EESA_SA_EET2_RT_T0_T1_SB_, symObjAddr: 0x7FA8, symBinAddr: 0x10000B2D8, symSize: 0x134 }
  - { offsetInCU: 0x9697, offset: 0x125F4, size: 0x8, addend: 0x0, symName: __ZNSt3__14swapB7v160006IPNS_12basic_stringIcNS_11char_traitsIcEENS_9allocatorIcEEEEEEvRT_S9_, symObjAddr: 0x8128, symBinAddr: 0x10000B458, symSize: 0x3C }
  - { offsetInCU: 0x96E8, offset: 0x12645, size: 0x8, addend: 0x0, symName: __ZNSt3__125__debug_db_invalidate_allB7v160006INS_6vectorINS_12basic_stringIcNS_11char_traitsIcEENS_9allocatorIcEEEENS5_IS7_EEEEEEvPT_, symObjAddr: 0x822C, symBinAddr: 0x10000B55C, symSize: 0x10 }
  - { offsetInCU: 0x9719, offset: 0x12676, size: 0x8, addend: 0x0, symName: __ZNSt3__122__make_exception_guardB7v160006INS_29_AllocatorDestroyRangeReverseINS_9allocatorINS_12basic_stringIcNS_11char_traitsIcEENS2_IcEEEEEENS_16reverse_iteratorIPS7_EEEEEENS_28__exception_guard_exceptionsIT_EESE_, symObjAddr: 0x823C, symBinAddr: 0x10000B56C, symSize: 0x4C }
  - { offsetInCU: 0x974F, offset: 0x126AC, size: 0x8, addend: 0x0, symName: __ZNSt3__1neB7v160006IPNS_12basic_stringIcNS_11char_traitsIcEENS_9allocatorIcEEEES7_EEbRKNS_16reverse_iteratorIT_EERKNS8_IT0_EE, symObjAddr: 0x82CC, symBinAddr: 0x10000B5FC, symSize: 0x48 }
  - { offsetInCU: 0x979B, offset: 0x126F8, size: 0x8, addend: 0x0, symName: __ZNSt3__112__to_addressB7v160006INS_16reverse_iteratorIPNS_12basic_stringIcNS_11char_traitsIcEENS_9allocatorIcEEEEEEvEENS_5decayIDTclsr19__to_address_helperIT_EE6__callclsr3stdE7declvalIRKSB_EEEEE4typeESD_, symObjAddr: 0x8314, symBinAddr: 0x10000B644, symSize: 0x24 }
  - { offsetInCU: 0x97FC, offset: 0x12759, size: 0x8, addend: 0x0, symName: __ZNSt3__119__allocator_destroyB7v160006INS_9allocatorINS_12basic_stringIcNS_11char_traitsIcEENS1_IcEEEEEENS_16reverse_iteratorINS8_IPS6_EEEESB_EEvRT_T0_T1_, symObjAddr: 0x85D0, symBinAddr: 0x10000B900, symSize: 0x70 }
  - { offsetInCU: 0x9862, offset: 0x127BF, size: 0x8, addend: 0x0, symName: __ZNSt3__1neB7v160006INS_16reverse_iteratorIPNS_12basic_stringIcNS_11char_traitsIcEENS_9allocatorIcEEEEEES9_EEbRKNS1_IT_EERKNS1_IT0_EE, symObjAddr: 0x867C, symBinAddr: 0x10000B9AC, symSize: 0x60 }
  - { offsetInCU: 0x98AE, offset: 0x1280B, size: 0x8, addend: 0x0, symName: __ZNSt3__112__to_addressB7v160006INS_16reverse_iteratorINS1_IPNS_12basic_stringIcNS_11char_traitsIcEENS_9allocatorIcEEEEEEEEvEENS_5decayIDTclsr19__to_address_helperIT_EE6__callclsr3stdE7declvalIRKSC_EEEEE4typeESE_, symObjAddr: 0x86DC, symBinAddr: 0x10000BA0C, symSize: 0x24 }
  - { offsetInCU: 0x990F, offset: 0x1286C, size: 0x8, addend: 0x0, symName: __ZNSt3__112__to_addressB7v160006IcEEPT_S2_, symObjAddr: 0x8AAC, symBinAddr: 0x10000BDDC, symSize: 0x14 }
  - { offsetInCU: 0x9944, offset: 0x128A1, size: 0x8, addend: 0x0, symName: __ZNSt3__14copyB7v160006IPKcPcEET0_T_S5_S4_, symObjAddr: 0x8DB0, symBinAddr: 0x10000C0E0, symSize: 0x40 }
  - { offsetInCU: 0x999E, offset: 0x128FB, size: 0x8, addend: 0x0, symName: __ZNSt3__16__copyB7v160006INS_17_ClassicAlgPolicyEPKcS3_PcEENS_4pairIT0_T2_EES6_T1_S7_, symObjAddr: 0x8DF0, symBinAddr: 0x10000C120, symSize: 0x44 }
  - { offsetInCU: 0x9A0A, offset: 0x12967, size: 0x8, addend: 0x0, symName: __ZNSt3__123__dispatch_copy_or_moveB7v160006INS_17_ClassicAlgPolicyENS_11__copy_loopIS1_EENS_14__copy_trivialEPKcS6_PcEENS_4pairIT2_T4_EES9_T3_SA_, symObjAddr: 0x8E34, symBinAddr: 0x10000C164, symSize: 0x54 }
  - { offsetInCU: 0x9A88, offset: 0x129E5, size: 0x8, addend: 0x0, symName: __ZNSt3__121__unwrap_and_dispatchB7v160006INS_10__overloadINS_11__copy_loopINS_17_ClassicAlgPolicyEEENS_14__copy_trivialEEEPKcS8_PcLi0EEENS_4pairIT0_T2_EESB_T1_SC_, symObjAddr: 0x8E88, symBinAddr: 0x10000C1B8, symSize: 0xB4 }
  - { offsetInCU: 0x9B17, offset: 0x12A74, size: 0x8, addend: 0x0, symName: __ZNSt3__114__unwrap_rangeB7v160006IPKcS2_EENS_4pairIT0_S4_EET_S6_, symObjAddr: 0x8F3C, symBinAddr: 0x10000C26C, symSize: 0x60 }
  - { offsetInCU: 0x9C57, offset: 0x12BB4, size: 0x8, addend: 0x0, symName: __ZNSt3__113__unwrap_iterB7v160006IPcNS_18__unwrap_iter_implIS1_Lb1EEELi0EEEDTclsrT0_8__unwrapclsr3stdE7declvalIT_EEEES5_, symObjAddr: 0x8FE4, symBinAddr: 0x10000C314, symSize: 0x24 }
  - { offsetInCU: 0x9C9C, offset: 0x12BF9, size: 0x8, addend: 0x0, symName: __ZNSt3__19make_pairB7v160006IPKcPcEENS_4pairINS_18__unwrap_ref_decayIT_E4typeENS5_IT0_E4typeEEEOS6_OS9_, symObjAddr: 0x9008, symBinAddr: 0x10000C338, symSize: 0x38 }
  - { offsetInCU: 0x9CEB, offset: 0x12C48, size: 0x8, addend: 0x0, symName: __ZNSt3__114__rewrap_rangeB7v160006IPKcS2_EET_S3_T0_, symObjAddr: 0x9040, symBinAddr: 0x10000C370, symSize: 0x2C }
  - { offsetInCU: 0x9D37, offset: 0x12C94, size: 0x8, addend: 0x0, symName: __ZNSt3__113__rewrap_iterB7v160006IPcS1_NS_18__unwrap_iter_implIS1_Lb1EEEEET_S4_T0_, symObjAddr: 0x906C, symBinAddr: 0x10000C39C, symSize: 0x50 }
  - { offsetInCU: 0x9D8C, offset: 0x12CE9, size: 0x8, addend: 0x0, symName: __ZNSt3__19make_pairB7v160006IPKcS2_EENS_4pairINS_18__unwrap_ref_decayIT_E4typeENS4_IT0_E4typeEEEOS5_OS8_, symObjAddr: 0x90BC, symBinAddr: 0x10000C3EC, symSize: 0x38 }
  - { offsetInCU: 0x9DDB, offset: 0x12D38, size: 0x8, addend: 0x0, symName: __ZNSt3__113__unwrap_iterB7v160006IPKcNS_18__unwrap_iter_implIS2_Lb1EEELi0EEEDTclsrT0_8__unwrapclsr3stdE7declvalIT_EEEES6_, symObjAddr: 0x90F4, symBinAddr: 0x10000C424, symSize: 0x24 }
  - { offsetInCU: 0x9F21, offset: 0x12E7E, size: 0x8, addend: 0x0, symName: __ZNSt3__119__copy_trivial_implB7v160006IKccEENS_4pairIPT_PT0_EES4_S4_S6_, symObjAddr: 0x91AC, symBinAddr: 0x10000C4DC, symSize: 0x7C }
  - { offsetInCU: 0x9F89, offset: 0x12EE6, size: 0x8, addend: 0x0, symName: __ZNSt3__19make_pairB7v160006IRPKcPcEENS_4pairINS_18__unwrap_ref_decayIT_E4typeENS6_IT0_E4typeEEEOS7_OSA_, symObjAddr: 0x9228, symBinAddr: 0x10000C558, symSize: 0x38 }
  - { offsetInCU: 0xA02C, offset: 0x12F89, size: 0x8, addend: 0x0, symName: __ZNSt3__113__rewrap_iterB7v160006IPKcS2_NS_18__unwrap_iter_implIS2_Lb1EEEEET_S5_T0_, symObjAddr: 0x92F4, symBinAddr: 0x10000C624, symSize: 0x50 }
  - { offsetInCU: 0xA081, offset: 0x12FDE, size: 0x8, addend: 0x0, symName: __ZNSt3__16fill_nB7v160006IPcmcEET_S2_T0_RKT1_, symObjAddr: 0x93D4, symBinAddr: 0x10000C704, symSize: 0x44 }
  - { offsetInCU: 0xA0E4, offset: 0x13041, size: 0x8, addend: 0x0, symName: __ZNSt3__18__fill_nB7v160006IPcmcEET_S2_T0_RKT1_, symObjAddr: 0x9418, symBinAddr: 0x10000C748, symSize: 0x64 }
  - { offsetInCU: 0xA147, offset: 0x130A4, size: 0x8, addend: 0x0, symName: __ZNSt3__121__convert_to_integralB7v160006Em, symObjAddr: 0x947C, symBinAddr: 0x10000C7AC, symSize: 0x14 }
  - { offsetInCU: 0xA35B, offset: 0x132B8, size: 0x8, addend: 0x0, symName: __ZSt28__throw_bad_array_new_lengthB7v160006v, symObjAddr: 0x498C, symBinAddr: 0x100008830, symSize: 0x34 }
  - { offsetInCU: 0xA959, offset: 0x138B6, size: 0x8, addend: 0x0, symName: __ZNSt3__16vectorI6ClientNS_9allocatorIS1_EEE26__swap_out_circular_bufferERNS_14__split_bufferIS1_RS3_EE, symObjAddr: 0x4240, symBinAddr: 0x1000080E4, symSize: 0x118 }
  - { offsetInCU: 0xAC09, offset: 0x13B66, size: 0x8, addend: 0x0, symName: __ZNSt3__16vectorINS_12basic_stringIcNS_11char_traitsIcEENS_9allocatorIcEEEENS4_IS6_EEE26__swap_out_circular_bufferERNS_14__split_bufferIS6_RS7_EE, symObjAddr: 0x7A34, symBinAddr: 0x10000AD64, symSize: 0x118 }
  - { offsetInCU: 0xCA03, offset: 0x15960, size: 0x8, addend: 0x0, symName: __ZN6ServerC2EiPc, symObjAddr: 0x0, symBinAddr: 0x100003F88, symSize: 0x17C }
  - { offsetInCU: 0xCA61, offset: 0x159BE, size: 0x8, addend: 0x0, symName: __ZNSt3__16vectorI6ClientNS_9allocatorIS1_EEEC1B7v160006Ev, symObjAddr: 0x17C, symBinAddr: 0x100004104, symSize: 0x2C }
  - { offsetInCU: 0xCA89, offset: 0x159E6, size: 0x8, addend: 0x0, symName: __ZNSt3__16vectorI6ClientNS_9allocatorIS1_EEE9push_backB7v160006EOS1_, symObjAddr: 0x1A8, symBinAddr: 0x100004130, symSize: 0x6C }
  - { offsetInCU: 0xCABE, offset: 0x15A1B, size: 0x8, addend: 0x0, symName: __ZNSt3__16vectorI6ClientNS_9allocatorIS1_EEED1B7v160006Ev, symObjAddr: 0x220, symBinAddr: 0x10000419C, symSize: 0x2C }
  - { offsetInCU: 0xCAE6, offset: 0x15A43, size: 0x8, addend: 0x0, symName: __ZN6ServerC1EiPc, symObjAddr: 0x24C, symBinAddr: 0x1000041C8, symSize: 0x3C }
  - { offsetInCU: 0xCB2D, offset: 0x15A8A, size: 0x8, addend: 0x0, symName: __ZN6ServerD2Ev, symObjAddr: 0x288, symBinAddr: 0x100004204, symSize: 0x16C }
  - { offsetInCU: 0xCB6C, offset: 0x15AC9, size: 0x8, addend: 0x0, symName: __ZNSt3__16vectorI6ClientNS_9allocatorIS1_EEEixB7v160006Em, symObjAddr: 0x3F4, symBinAddr: 0x100004370, symSize: 0x2C }
  - { offsetInCU: 0xCBA1, offset: 0x15AFE, size: 0x8, addend: 0x0, symName: __ZN6ServerD1Ev, symObjAddr: 0x4EC, symBinAddr: 0x10000439C, symSize: 0x2C }
  - { offsetInCU: 0xCBCC, offset: 0x15B29, size: 0x8, addend: 0x0, symName: __ZN6Server8shutdownEv, symObjAddr: 0x518, symBinAddr: 0x1000043C8, symSize: 0xD4 }
  - { offsetInCU: 0xCC10, offset: 0x15B6D, size: 0x8, addend: 0x0, symName: __ZN6Server7handlerEi, symObjAddr: 0x5EC, symBinAddr: 0x10000449C, symSize: 0x6C }
  - { offsetInCU: 0xCC53, offset: 0x15BB0, size: 0x8, addend: 0x0, symName: __ZN6Server11sig_handlerEv, symObjAddr: 0x658, symBinAddr: 0x100004508, symSize: 0x1C4 }
  - { offsetInCU: 0xCD04, offset: 0x15C61, size: 0x8, addend: 0x0, symName: __ZN6Server6launchEv, symObjAddr: 0x81C, symBinAddr: 0x1000046CC, symSize: 0x80 }
  - { offsetInCU: 0xCD2B, offset: 0x15C88, size: 0x8, addend: 0x0, symName: __ZN6Server12get_addrinfoEv, symObjAddr: 0x89C, symBinAddr: 0x10000474C, symSize: 0x1AC }
  - { offsetInCU: 0xCD75, offset: 0x15CD2, size: 0x8, addend: 0x0, symName: __ZN6Server6socketEv, symObjAddr: 0xA48, symBinAddr: 0x1000048F8, symSize: 0x16C }
  - { offsetInCU: 0xCDB0, offset: 0x15D0D, size: 0x8, addend: 0x0, symName: __ZN6Server4bindEv, symObjAddr: 0xBB4, symBinAddr: 0x100004A64, symSize: 0x294 }
  - { offsetInCU: 0xCDF9, offset: 0x15D56, size: 0x8, addend: 0x0, symName: __ZN6Server6listenEv, symObjAddr: 0xE48, symBinAddr: 0x100004CF8, symSize: 0x17C }
  - { offsetInCU: 0xCED0, offset: 0x15E2D, size: 0x8, addend: 0x0, symName: __ZN6Server4loopEv, symObjAddr: 0xFC4, symBinAddr: 0x100004E74, symSize: 0x308 }
  - { offsetInCU: 0xCFC6, offset: 0x15F23, size: 0x8, addend: 0x0, symName: __ZNKSt3__112basic_stringIcNS_11char_traitsIcEENS_9allocatorIcEEE5c_strB7v160006Ev, symObjAddr: 0x12CC, symBinAddr: 0x10000517C, symSize: 0x24 }
  - { offsetInCU: 0xCFEF, offset: 0x15F4C, size: 0x8, addend: 0x0, symName: __ZNSt3__112basic_stringIcNS_11char_traitsIcEENS_9allocatorIcEEEC1B7v160006IDnEEPKc, symObjAddr: 0x12F0, symBinAddr: 0x1000051A0, symSize: 0x34 }
  - { offsetInCU: 0xD02C, offset: 0x15F89, size: 0x8, addend: 0x0, symName: __ZN6Server15ServerExceptionC1EPKc, symObjAddr: 0x1324, symBinAddr: 0x1000051D4, symSize: 0x34 }
  - { offsetInCU: 0xD065, offset: 0x15FC2, size: 0x8, addend: 0x0, symName: __ZN6Server15ServerExceptionD1Ev, symObjAddr: 0x1358, symBinAddr: 0x100005208, symSize: 0x2C }
  - { offsetInCU: 0xD090, offset: 0x15FED, size: 0x8, addend: 0x0, symName: __ZL12_OSSwapInt16t, symObjAddr: 0x1384, symBinAddr: 0x100005234, symSize: 0x24 }
  - { offsetInCU: 0xD0BD, offset: 0x1601A, size: 0x8, addend: 0x0, symName: __ZN6Server21getProtocolFamilyNameEi, symObjAddr: 0x13F4, symBinAddr: 0x1000052A4, symSize: 0x8C }
  - { offsetInCU: 0xD0F4, offset: 0x16051, size: 0x8, addend: 0x0, symName: __ZN6Server15ServerExceptionC2EPKc, symObjAddr: 0x1480, symBinAddr: 0x100005330, symSize: 0x50 }
  - { offsetInCU: 0xD12D, offset: 0x1608A, size: 0x8, addend: 0x0, symName: __ZNSt9exceptionC2B7v160006Ev, symObjAddr: 0x14D0, symBinAddr: 0x100005380, symSize: 0x24 }
  - { offsetInCU: 0xD155, offset: 0x160B2, size: 0x8, addend: 0x0, symName: __ZNK6Server15ServerException4whatEv, symObjAddr: 0x14F4, symBinAddr: 0x1000053A4, symSize: 0x18 }
  - { offsetInCU: 0xD1A2, offset: 0x160FF, size: 0x8, addend: 0x0, symName: __ZN6Server9reset_fdsEv, symObjAddr: 0x150C, symBinAddr: 0x1000053BC, symSize: 0x22C }
  - { offsetInCU: 0xD286, offset: 0x161E3, size: 0x8, addend: 0x0, symName: __ZN6Server6acceptEv, symObjAddr: 0x1738, symBinAddr: 0x1000055E8, symSize: 0x150 }
  - { offsetInCU: 0xD2D8, offset: 0x16235, size: 0x8, addend: 0x0, symName: __ZN6Server7receiveEi, symObjAddr: 0x1888, symBinAddr: 0x100005738, symSize: 0x430 }
  - { offsetInCU: 0xD39F, offset: 0x162FC, size: 0x8, addend: 0x0, symName: __ZNSt3__112basic_stringIcNS_11char_traitsIcEENS_9allocatorIcEEEaSB7v160006EPKc, symObjAddr: 0x1CB8, symBinAddr: 0x100005B68, symSize: 0x2C }
  - { offsetInCU: 0xD3D2, offset: 0x1632F, size: 0x8, addend: 0x0, symName: __ZN6Server7processERNSt3__112basic_stringIcNS0_11char_traitsIcEENS0_9allocatorIcEEEEi, symObjAddr: 0x1CE4, symBinAddr: 0x100005B94, symSize: 0x94 }
  - { offsetInCU: 0xD418, offset: 0x16375, size: 0x8, addend: 0x0, symName: __ZN6Server18is_unique_nicknameERNSt3__112basic_stringIcNS0_11char_traitsIcEENS0_9allocatorIcEEEE, symObjAddr: 0x1D78, symBinAddr: 0x100005C28, symSize: 0x130 }
  - { offsetInCU: 0xD46D, offset: 0x163CA, size: 0x8, addend: 0x0, symName: __ZN6Server20process_registrationERNSt3__112basic_stringIcNS0_11char_traitsIcEENS0_9allocatorIcEEEEi, symObjAddr: 0x1FF0, symBinAddr: 0x100005EA0, symSize: 0xB1C }
  - { offsetInCU: 0xD558, offset: 0x164B5, size: 0x8, addend: 0x0, symName: __ZNSt3__112basic_stringIcNS_11char_traitsIcEENS_9allocatorIcEEEC1B7v160006Ev, symObjAddr: 0x2B0C, symBinAddr: 0x1000069BC, symSize: 0x2C }
  - { offsetInCU: 0xD580, offset: 0x164DD, size: 0x8, addend: 0x0, symName: __ZNSt3__16vectorINS_12basic_stringIcNS_11char_traitsIcEENS_9allocatorIcEEEENS4_IS6_EEEC1B7v160006Ev, symObjAddr: 0x2B38, symBinAddr: 0x1000069E8, symSize: 0x2C }
  - { offsetInCU: 0xD681, offset: 0x165DE, size: 0x8, addend: 0x0, symName: __ZNSt3__119basic_istringstreamIcNS_11char_traitsIcEENS_9allocatorIcEEEC1B7v160006ERKNS_12basic_stringIcS2_S4_EEj, symObjAddr: 0x2B64, symBinAddr: 0x100006A14, symSize: 0x108 }
  - { offsetInCU: 0xD6C7, offset: 0x16624, size: 0x8, addend: 0x0, symName: __ZNKSt3__19basic_iosIcNS_11char_traitsIcEEE3eofB7v160006Ev, symObjAddr: 0x2C6C, symBinAddr: 0x100006B1C, symSize: 0x28 }
  - { offsetInCU: 0xD6EB, offset: 0x16648, size: 0x8, addend: 0x0, symName: __ZNSt3__16vectorINS_12basic_stringIcNS_11char_traitsIcEENS_9allocatorIcEEEENS4_IS6_EEE9push_backB7v160006ERKS6_, symObjAddr: 0x2FA8, symBinAddr: 0x100006E58, symSize: 0x6C }
  - { offsetInCU: 0xD720, offset: 0x1667D, size: 0x8, addend: 0x0, symName: __ZNSt3__16vectorINS_12basic_stringIcNS_11char_traitsIcEENS_9allocatorIcEEEENS4_IS6_EEEixB7v160006Em, symObjAddr: 0x30D4, symBinAddr: 0x100006F84, symSize: 0x2C }
  - { offsetInCU: 0xD755, offset: 0x166B2, size: 0x8, addend: 0x0, symName: __ZNKSt3__16vectorINS_12basic_stringIcNS_11char_traitsIcEENS_9allocatorIcEEEENS4_IS6_EEE4sizeB7v160006Ev, symObjAddr: 0x3100, symBinAddr: 0x100006FB0, symSize: 0x28 }
  - { offsetInCU: 0xD779, offset: 0x166D6, size: 0x8, addend: 0x0, symName: __ZNSt3__112basic_stringIcNS_11char_traitsIcEENS_9allocatorIcEEEpLB7v160006ERKS5_, symObjAddr: 0x3244, symBinAddr: 0x1000070F4, symSize: 0x2C }
  - { offsetInCU: 0xD7AC, offset: 0x16709, size: 0x8, addend: 0x0, symName: __ZNKSt3__112basic_stringIcNS_11char_traitsIcEENS_9allocatorIcEEE5emptyB7v160006Ev, symObjAddr: 0x3270, symBinAddr: 0x100007120, symSize: 0x30 }
  - { offsetInCU: 0xD7D5, offset: 0x16732, size: 0x8, addend: 0x0, symName: __ZNSt3__119basic_istringstreamIcNS_11char_traitsIcEENS_9allocatorIcEEED1Ev, symObjAddr: 0x32D4, symBinAddr: 0x100007184, symSize: 0x70 }
  - { offsetInCU: 0xD801, offset: 0x1675E, size: 0x8, addend: 0x0, symName: __ZNSt3__16vectorINS_12basic_stringIcNS_11char_traitsIcEENS_9allocatorIcEEEENS4_IS6_EEED1B7v160006Ev, symObjAddr: 0x3344, symBinAddr: 0x1000071F4, symSize: 0x2C }
  - { offsetInCU: 0xD829, offset: 0x16786, size: 0x8, addend: 0x0, symName: __ZN6Server14getConnectionsEv, symObjAddr: 0x3370, symBinAddr: 0x100007220, symSize: 0x18 }
  - { offsetInCU: 0xD851, offset: 0x167AE, size: 0x8, addend: 0x0, symName: __ZN6Server13getServerNameEv, symObjAddr: 0x3388, symBinAddr: 0x100007238, symSize: 0x18 }
  - { offsetInCU: 0xD879, offset: 0x167D6, size: 0x8, addend: 0x0, symName: __ZN6Server15ServerExceptionD0Ev, symObjAddr: 0x33A0, symBinAddr: 0x100007250, symSize: 0x30 }
  - { offsetInCU: 0xD8A4, offset: 0x16801, size: 0x8, addend: 0x0, symName: __ZN6Server15ServerExceptionD2Ev, symObjAddr: 0x33D0, symBinAddr: 0x100007280, symSize: 0x2C }
  - { offsetInCU: 0xD8CF, offset: 0x1682C, size: 0x8, addend: 0x0, symName: __ZNSt3__119basic_istringstreamIcNS_11char_traitsIcEENS_9allocatorIcEEED2Ev, symObjAddr: 0x33FC, symBinAddr: 0x1000072AC, symSize: 0x9C }
  - { offsetInCU: 0xD907, offset: 0x16864, size: 0x8, addend: 0x0, symName: __ZTv0_n24_NSt3__119basic_istringstreamIcNS_11char_traitsIcEENS_9allocatorIcEEED1Ev, symObjAddr: 0x3498, symBinAddr: 0x100007348, symSize: 0x28 }
  - { offsetInCU: 0xD923, offset: 0x16880, size: 0x8, addend: 0x0, symName: __ZNSt3__115basic_stringbufIcNS_11char_traitsIcEENS_9allocatorIcEEED1Ev, symObjAddr: 0x34C0, symBinAddr: 0x100007370, symSize: 0x2C }
  - { offsetInCU: 0xD94F, offset: 0x168AC, size: 0x8, addend: 0x0, symName: __ZNSt3__115basic_stringbufIcNS_11char_traitsIcEENS_9allocatorIcEEED2Ev, symObjAddr: 0x34EC, symBinAddr: 0x10000739C, symSize: 0x78 }
  - { offsetInCU: 0xD97B, offset: 0x168D8, size: 0x8, addend: 0x0, symName: __ZNSt3__16vectorI6ClientNS_9allocatorIS1_EEEC2B7v160006Ev, symObjAddr: 0x3564, symBinAddr: 0x100007414, symSize: 0x4C }
  - { offsetInCU: 0xD9AD, offset: 0x1690A, size: 0x8, addend: 0x0, symName: __ZNSt3__117__compressed_pairIP6ClientNS_9allocatorIS1_EEEC1B7v160006IDnNS_18__default_init_tagEEEOT_OT0_, symObjAddr: 0x35B0, symBinAddr: 0x100007460, symSize: 0x3C }
  - { offsetInCU: 0xDA03, offset: 0x16960, size: 0x8, addend: 0x0, symName: __ZNSt3__117__compressed_pairIP6ClientNS_9allocatorIS1_EEEC2B7v160006IDnNS_18__default_init_tagEEEOT_OT0_, symObjAddr: 0x35FC, symBinAddr: 0x1000074AC, symSize: 0x40 }
  - { offsetInCU: 0xDA59, offset: 0x169B6, size: 0x8, addend: 0x0, symName: __ZNSt3__122__compressed_pair_elemIP6ClientLi0ELb0EEC2B7v160006IDnvEEOT_, symObjAddr: 0x363C, symBinAddr: 0x1000074EC, symSize: 0x1C }
  - { offsetInCU: 0xDA9A, offset: 0x169F7, size: 0x8, addend: 0x0, symName: __ZNSt3__122__compressed_pair_elemINS_9allocatorI6ClientEELi1ELb1EEC2B7v160006ENS_18__default_init_tagE, symObjAddr: 0x3658, symBinAddr: 0x100007508, symSize: 0x2C }
  - { offsetInCU: 0xDACC, offset: 0x16A29, size: 0x8, addend: 0x0, symName: __ZNSt3__19allocatorI6ClientEC2B7v160006Ev, symObjAddr: 0x3684, symBinAddr: 0x100007534, symSize: 0x2C }
  - { offsetInCU: 0xDAF4, offset: 0x16A51, size: 0x8, addend: 0x0, symName: __ZNSt3__116__non_trivial_ifILb1ENS_9allocatorI6ClientEEEC2B7v160006Ev, symObjAddr: 0x36B0, symBinAddr: 0x100007560, symSize: 0x14 }
  - { offsetInCU: 0xDB1C, offset: 0x16A79, size: 0x8, addend: 0x0, symName: __ZNSt3__16vectorI6ClientNS_9allocatorIS1_EEED2B7v160006Ev, symObjAddr: 0x36C4, symBinAddr: 0x100007574, symSize: 0x3C }
  - { offsetInCU: 0xDB44, offset: 0x16AA1, size: 0x8, addend: 0x0, symName: __ZNSt3__16vectorI6ClientNS_9allocatorIS1_EEE16__destroy_vectorC1ERS4_, symObjAddr: 0x3700, symBinAddr: 0x1000075B0, symSize: 0x34 }
  - { offsetInCU: 0xDB7B, offset: 0x16AD8, size: 0x8, addend: 0x0, symName: __ZNSt3__16vectorI6ClientNS_9allocatorIS1_EEE16__destroy_vectorclB7v160006Ev, symObjAddr: 0x3734, symBinAddr: 0x1000075E4, symSize: 0x9C }
  - { offsetInCU: 0xDB9F, offset: 0x16AFC, size: 0x8, addend: 0x0, symName: __ZNSt3__16vectorI6ClientNS_9allocatorIS1_EEE16__destroy_vectorC2ERS4_, symObjAddr: 0x37D0, symBinAddr: 0x100007680, symSize: 0x20 }
  - { offsetInCU: 0xDBD6, offset: 0x16B33, size: 0x8, addend: 0x0, symName: __ZNKSt3__16vectorI6ClientNS_9allocatorIS1_EEE17__annotate_deleteB7v160006Ev, symObjAddr: 0x37F0, symBinAddr: 0x1000076A0, symSize: 0xD4 }
  - { offsetInCU: 0xDBFA, offset: 0x16B57, size: 0x8, addend: 0x0, symName: __ZNSt3__16vectorI6ClientNS_9allocatorIS1_EEE7__clearB7v160006Ev, symObjAddr: 0x38D4, symBinAddr: 0x100007784, symSize: 0x28 }
  - { offsetInCU: 0xDC1E, offset: 0x16B7B, size: 0x8, addend: 0x0, symName: __ZNSt3__116allocator_traitsINS_9allocatorI6ClientEEE10deallocateB7v160006ERS3_PS2_m, symObjAddr: 0x38FC, symBinAddr: 0x1000077AC, symSize: 0x34 }
  - { offsetInCU: 0xDC5F, offset: 0x16BBC, size: 0x8, addend: 0x0, symName: __ZNSt3__16vectorI6ClientNS_9allocatorIS1_EEE7__allocB7v160006Ev, symObjAddr: 0x3930, symBinAddr: 0x1000077E0, symSize: 0x28 }
  - { offsetInCU: 0xDC83, offset: 0x16BE0, size: 0x8, addend: 0x0, symName: __ZNKSt3__16vectorI6ClientNS_9allocatorIS1_EEE8capacityB7v160006Ev, symObjAddr: 0x3958, symBinAddr: 0x100007808, symSize: 0x40 }
  - { offsetInCU: 0xDCA7, offset: 0x16C04, size: 0x8, addend: 0x0, symName: __ZNKSt3__16vectorI6ClientNS_9allocatorIS1_EEE31__annotate_contiguous_containerB7v160006EPKvS6_S6_S6_, symObjAddr: 0x3998, symBinAddr: 0x100007848, symSize: 0x20 }
  - { offsetInCU: 0xDCFB, offset: 0x16C58, size: 0x8, addend: 0x0, symName: __ZNKSt3__16vectorI6ClientNS_9allocatorIS1_EEE4dataB7v160006Ev, symObjAddr: 0x39B8, symBinAddr: 0x100007868, symSize: 0x28 }
  - { offsetInCU: 0xDD1F, offset: 0x16C7C, size: 0x8, addend: 0x0, symName: __ZNKSt3__16vectorI6ClientNS_9allocatorIS1_EEE4sizeB7v160006Ev, symObjAddr: 0x39E0, symBinAddr: 0x100007890, symSize: 0x28 }
  - { offsetInCU: 0xDD43, offset: 0x16CA0, size: 0x8, addend: 0x0, symName: __ZNSt3__16vectorI6ClientNS_9allocatorIS1_EEE22__base_destruct_at_endB7v160006EPS1_, symObjAddr: 0x3A1C, symBinAddr: 0x1000078CC, symSize: 0xA0 }
  - { offsetInCU: 0xDD85, offset: 0x16CE2, size: 0x8, addend: 0x0, symName: __ZNSt3__116allocator_traitsINS_9allocatorI6ClientEEE7destroyB7v160006IS2_vEEvRS3_PT_, symObjAddr: 0x3ABC, symBinAddr: 0x10000796C, symSize: 0x2C }
  - { offsetInCU: 0xDDC2, offset: 0x16D1F, size: 0x8, addend: 0x0, symName: __ZNSt3__19allocatorI6ClientE7destroyB7v160006EPS1_, symObjAddr: 0x3AE8, symBinAddr: 0x100007998, symSize: 0x28 }
  - { offsetInCU: 0xDDF4, offset: 0x16D51, size: 0x8, addend: 0x0, symName: __ZNSt3__19allocatorI6ClientE10deallocateB7v160006EPS1_m, symObjAddr: 0x3B10, symBinAddr: 0x1000079C0, symSize: 0x74 }
  - { offsetInCU: 0xDE34, offset: 0x16D91, size: 0x8, addend: 0x0, symName: __ZNSt3__117__compressed_pairIP6ClientNS_9allocatorIS1_EEE6secondB7v160006Ev, symObjAddr: 0x3C0C, symBinAddr: 0x100007AB0, symSize: 0x24 }
  - { offsetInCU: 0xDE58, offset: 0x16DB5, size: 0x8, addend: 0x0, symName: __ZNSt3__122__compressed_pair_elemINS_9allocatorI6ClientEELi1ELb1EE5__getB7v160006Ev, symObjAddr: 0x3C30, symBinAddr: 0x100007AD4, symSize: 0x14 }
  - { offsetInCU: 0xDE7C, offset: 0x16DD9, size: 0x8, addend: 0x0, symName: __ZNKSt3__16vectorI6ClientNS_9allocatorIS1_EEE9__end_capB7v160006Ev, symObjAddr: 0x3C44, symBinAddr: 0x100007AE8, symSize: 0x28 }
  - { offsetInCU: 0xDEA0, offset: 0x16DFD, size: 0x8, addend: 0x0, symName: __ZNKSt3__117__compressed_pairIP6ClientNS_9allocatorIS1_EEE5firstB7v160006Ev, symObjAddr: 0x3C6C, symBinAddr: 0x100007B10, symSize: 0x24 }
  - { offsetInCU: 0xDEC4, offset: 0x16E21, size: 0x8, addend: 0x0, symName: __ZNKSt3__122__compressed_pair_elemIP6ClientLi0ELb0EE5__getB7v160006Ev, symObjAddr: 0x3C90, symBinAddr: 0x100007B34, symSize: 0x14 }
  - { offsetInCU: 0xDEE8, offset: 0x16E45, size: 0x8, addend: 0x0, symName: __ZNSt3__16vectorI6ClientNS_9allocatorIS1_EEE9__end_capB7v160006Ev, symObjAddr: 0x3CA4, symBinAddr: 0x100007B48, symSize: 0x28 }
  - { offsetInCU: 0xDF11, offset: 0x16E6E, size: 0x8, addend: 0x0, symName: __ZNSt3__16vectorI6ClientNS_9allocatorIS1_EEE22__construct_one_at_endB7v160006IJS1_EEEvDpOT_, symObjAddr: 0x3CCC, symBinAddr: 0x100007B70, symSize: 0x98 }
  - { offsetInCU: 0xDF60, offset: 0x16EBD, size: 0x8, addend: 0x0, symName: __ZNSt3__16vectorI6ClientNS_9allocatorIS1_EEE21__push_back_slow_pathIS1_EEvOT_, symObjAddr: 0x3D64, symBinAddr: 0x100007C08, symSize: 0xE0 }
  - { offsetInCU: 0xDFBC, offset: 0x16F19, size: 0x8, addend: 0x0, symName: __ZNSt3__117__compressed_pairIP6ClientNS_9allocatorIS1_EEE5firstB7v160006Ev, symObjAddr: 0x3E44, symBinAddr: 0x100007CE8, symSize: 0x24 }
  - { offsetInCU: 0xDFE0, offset: 0x16F3D, size: 0x8, addend: 0x0, symName: __ZNSt3__122__compressed_pair_elemIP6ClientLi0ELb0EE5__getB7v160006Ev, symObjAddr: 0x3E68, symBinAddr: 0x100007D0C, symSize: 0x14 }
  - { offsetInCU: 0xE01D, offset: 0x16F7A, size: 0x8, addend: 0x0, symName: __ZNSt3__16vectorI6ClientNS_9allocatorIS1_EEE21_ConstructTransactionC1B7v160006ERS4_m, symObjAddr: 0x3E7C, symBinAddr: 0x100007D20, symSize: 0x3C }
  - { offsetInCU: 0xE063, offset: 0x16FC0, size: 0x8, addend: 0x0, symName: __ZNSt3__116allocator_traitsINS_9allocatorI6ClientEEE9constructB7v160006IS2_JS2_EvEEvRS3_PT_DpOT0_, symObjAddr: 0x3EB8, symBinAddr: 0x100007D5C, symSize: 0x34 }
  - { offsetInCU: 0xE0BC, offset: 0x17019, size: 0x8, addend: 0x0, symName: __ZNSt3__16vectorI6ClientNS_9allocatorIS1_EEE21_ConstructTransactionD1B7v160006Ev, symObjAddr: 0x3EEC, symBinAddr: 0x100007D90, symSize: 0x2C }
  - { offsetInCU: 0xE0E4, offset: 0x17041, size: 0x8, addend: 0x0, symName: __ZNSt3__16vectorI6ClientNS_9allocatorIS1_EEE21_ConstructTransactionC2B7v160006ERS4_m, symObjAddr: 0x3F18, symBinAddr: 0x100007DBC, symSize: 0x4C }
  - { offsetInCU: 0xE12A, offset: 0x17087, size: 0x8, addend: 0x0, symName: __ZNSt3__19allocatorI6ClientE9constructB7v160006IS1_JS1_EEEvPT_DpOT0_, symObjAddr: 0x3F64, symBinAddr: 0x100007E08, symSize: 0x30 }
  - { offsetInCU: 0xE180, offset: 0x170DD, size: 0x8, addend: 0x0, symName: __ZN6ClientC1ERKS_, symObjAddr: 0x3F94, symBinAddr: 0x100007E38, symSize: 0x34 }
  - { offsetInCU: 0xE1B4, offset: 0x17111, size: 0x8, addend: 0x0, symName: __ZN6ClientC2ERKS_, symObjAddr: 0x3FC8, symBinAddr: 0x100007E6C, symSize: 0x160 }
  - { offsetInCU: 0xE1E8, offset: 0x17145, size: 0x8, addend: 0x0, symName: __ZNSt3__16vectorI6ClientNS_9allocatorIS1_EEE21_ConstructTransactionD2B7v160006Ev, symObjAddr: 0x4128, symBinAddr: 0x100007FCC, symSize: 0x20 }
  - { offsetInCU: 0xE210, offset: 0x1716D, size: 0x8, addend: 0x0, symName: __ZNKSt3__16vectorI6ClientNS_9allocatorIS1_EEE11__recommendB7v160006Em, symObjAddr: 0x4148, symBinAddr: 0x100007FEC, symSize: 0xB4 }
  - { offsetInCU: 0xE263, offset: 0x171C0, size: 0x8, addend: 0x0, symName: __ZNSt3__114__split_bufferI6ClientRNS_9allocatorIS1_EEEC1EmmS4_, symObjAddr: 0x41FC, symBinAddr: 0x1000080A0, symSize: 0x44 }
  - { offsetInCU: 0xE2B8, offset: 0x17215, size: 0x8, addend: 0x0, symName: __ZNSt3__114__split_bufferI6ClientRNS_9allocatorIS1_EEED1Ev, symObjAddr: 0x4358, symBinAddr: 0x1000081FC, symSize: 0x2C }
  - { offsetInCU: 0xE2E3, offset: 0x17240, size: 0x8, addend: 0x0, symName: __ZNKSt3__16vectorI6ClientNS_9allocatorIS1_EEE8max_sizeEv, symObjAddr: 0x4384, symBinAddr: 0x100008228, symSize: 0x74 }
  - { offsetInCU: 0xE309, offset: 0x17266, size: 0x8, addend: 0x0, symName: __ZNKSt3__16vectorI6ClientNS_9allocatorIS1_EEE20__throw_length_errorB7v160006Ev, symObjAddr: 0x43F8, symBinAddr: 0x10000829C, symSize: 0x1C }
  - { offsetInCU: 0xE337, offset: 0x17294, size: 0x8, addend: 0x0, symName: __ZNSt3__116allocator_traitsINS_9allocatorI6ClientEEE8max_sizeB7v160006IS3_vEEmRKS3_, symObjAddr: 0x446C, symBinAddr: 0x100008310, symSize: 0x24 }
  - { offsetInCU: 0xE365, offset: 0x172C2, size: 0x8, addend: 0x0, symName: __ZNKSt3__16vectorI6ClientNS_9allocatorIS1_EEE7__allocB7v160006Ev, symObjAddr: 0x4490, symBinAddr: 0x100008334, symSize: 0x28 }
  - { offsetInCU: 0xE389, offset: 0x172E6, size: 0x8, addend: 0x0, symName: __ZNSt3__114numeric_limitsIlE3maxB7v160006Ev, symObjAddr: 0x44B8, symBinAddr: 0x10000835C, symSize: 0x14 }
  - { offsetInCU: 0xE3B1, offset: 0x1730E, size: 0x8, addend: 0x0, symName: __ZNKSt3__16__lessImmEclB7v160006ERKmS3_, symObjAddr: 0x4520, symBinAddr: 0x1000083C4, symSize: 0x34 }
  - { offsetInCU: 0xE3F1, offset: 0x1734E, size: 0x8, addend: 0x0, symName: __ZNKSt3__19allocatorI6ClientE8max_sizeB7v160006Ev, symObjAddr: 0x4554, symBinAddr: 0x1000083F8, symSize: 0x20 }
  - { offsetInCU: 0xE415, offset: 0x17372, size: 0x8, addend: 0x0, symName: __ZNKSt3__117__compressed_pairIP6ClientNS_9allocatorIS1_EEE6secondB7v160006Ev, symObjAddr: 0x4574, symBinAddr: 0x100008418, symSize: 0x24 }
  - { offsetInCU: 0xE439, offset: 0x17396, size: 0x8, addend: 0x0, symName: __ZNKSt3__122__compressed_pair_elemINS_9allocatorI6ClientEELi1ELb1EE5__getB7v160006Ev, symObjAddr: 0x4598, symBinAddr: 0x10000843C, symSize: 0x14 }
  - { offsetInCU: 0xE45D, offset: 0x173BA, size: 0x8, addend: 0x0, symName: __ZNSt3__123__libcpp_numeric_limitsIlLb1EE3maxB7v160006Ev, symObjAddr: 0x45AC, symBinAddr: 0x100008450, symSize: 0x8 }
  - { offsetInCU: 0xE470, offset: 0x173CD, size: 0x8, addend: 0x0, symName: __ZNSt12length_errorC1B7v160006EPKc, symObjAddr: 0x4618, symBinAddr: 0x1000084BC, symSize: 0x34 }
  - { offsetInCU: 0xE4A6, offset: 0x17403, size: 0x8, addend: 0x0, symName: __ZNSt12length_errorC2B7v160006EPKc, symObjAddr: 0x464C, symBinAddr: 0x1000084F0, symSize: 0x4C }
  - { offsetInCU: 0xE4DC, offset: 0x17439, size: 0x8, addend: 0x0, symName: __ZNSt3__114__split_bufferI6ClientRNS_9allocatorIS1_EEEC2EmmS4_, symObjAddr: 0x46EC, symBinAddr: 0x100008590, symSize: 0xE0 }
  - { offsetInCU: 0xE54F, offset: 0x174AC, size: 0x8, addend: 0x0, symName: __ZNSt3__117__compressed_pairIP6ClientRNS_9allocatorIS1_EEEC1B7v160006IDnS5_EEOT_OT0_, symObjAddr: 0x47CC, symBinAddr: 0x100008670, symSize: 0x3C }
  - { offsetInCU: 0xE5A5, offset: 0x17502, size: 0x8, addend: 0x0, symName: __ZNSt3__114__split_bufferI6ClientRNS_9allocatorIS1_EEE7__allocB7v160006Ev, symObjAddr: 0x4848, symBinAddr: 0x1000086EC, symSize: 0x28 }
  - { offsetInCU: 0xE5C9, offset: 0x17526, size: 0x8, addend: 0x0, symName: __ZNSt3__114__split_bufferI6ClientRNS_9allocatorIS1_EEE9__end_capB7v160006Ev, symObjAddr: 0x4870, symBinAddr: 0x100008714, symSize: 0x28 }
  - { offsetInCU: 0xE5ED, offset: 0x1754A, size: 0x8, addend: 0x0, symName: __ZNSt3__117__compressed_pairIP6ClientRNS_9allocatorIS1_EEEC2B7v160006IDnS5_EEOT_OT0_, symObjAddr: 0x4898, symBinAddr: 0x10000873C, symSize: 0x48 }
  - { offsetInCU: 0xE643, offset: 0x175A0, size: 0x8, addend: 0x0, symName: __ZNSt3__122__compressed_pair_elemIRNS_9allocatorI6ClientEELi1ELb0EEC2B7v160006IS4_vEEOT_, symObjAddr: 0x48E0, symBinAddr: 0x100008784, symSize: 0x20 }
  - { offsetInCU: 0xE684, offset: 0x175E1, size: 0x8, addend: 0x0, symName: __ZNSt3__19allocatorI6ClientE8allocateB7v160006Em, symObjAddr: 0x4900, symBinAddr: 0x1000087A4, symSize: 0x8C }
  - { offsetInCU: 0xE6B6, offset: 0x17613, size: 0x8, addend: 0x0, symName: __ZNSt3__117__compressed_pairIP6ClientRNS_9allocatorIS1_EEE6secondB7v160006Ev, symObjAddr: 0x4A0C, symBinAddr: 0x1000088B0, symSize: 0x28 }
  - { offsetInCU: 0xE6DA, offset: 0x17637, size: 0x8, addend: 0x0, symName: __ZNSt3__122__compressed_pair_elemIRNS_9allocatorI6ClientEELi1ELb0EE5__getB7v160006Ev, symObjAddr: 0x4A34, symBinAddr: 0x1000088D8, symSize: 0x18 }
  - { offsetInCU: 0xE6FE, offset: 0x1765B, size: 0x8, addend: 0x0, symName: __ZNSt3__117__compressed_pairIP6ClientRNS_9allocatorIS1_EEE5firstB7v160006Ev, symObjAddr: 0x4A4C, symBinAddr: 0x1000088F0, symSize: 0x24 }
  - { offsetInCU: 0xE722, offset: 0x1767F, size: 0x8, addend: 0x0, symName: __ZNSt3__116reverse_iteratorIP6ClientEC1B7v160006ES2_, symObjAddr: 0x4BA4, symBinAddr: 0x100008A48, symSize: 0x34 }
  - { offsetInCU: 0xE758, offset: 0x176B5, size: 0x8, addend: 0x0, symName: __ZNKSt3__116reverse_iteratorIP6ClientE4baseB7v160006Ev, symObjAddr: 0x4BD8, symBinAddr: 0x100008A7C, symSize: 0x18 }
  - { offsetInCU: 0xE77C, offset: 0x176D9, size: 0x8, addend: 0x0, symName: __ZNKSt3__16vectorI6ClientNS_9allocatorIS1_EEE14__annotate_newB7v160006Em, symObjAddr: 0x4C2C, symBinAddr: 0x100008AD0, symSize: 0xC8 }
  - { offsetInCU: 0xE7AF, offset: 0x1770C, size: 0x8, addend: 0x0, symName: __ZNSt3__129_AllocatorDestroyRangeReverseINS_9allocatorI6ClientEENS_16reverse_iteratorIPS2_EEEC1B7v160006ERS3_RS6_S9_, symObjAddr: 0x4D50, symBinAddr: 0x100008BF4, symSize: 0x44 }
  - { offsetInCU: 0xE804, offset: 0x17761, size: 0x8, addend: 0x0, symName: __ZNSt3__116allocator_traitsINS_9allocatorI6ClientEEE9constructB7v160006IS2_JRKS2_EvEEvRS3_PT_DpOT0_, symObjAddr: 0x4DDC, symBinAddr: 0x100008C80, symSize: 0x34 }
  - { offsetInCU: 0xE85D, offset: 0x177BA, size: 0x8, addend: 0x0, symName: __ZNKSt3__116reverse_iteratorIP6ClientEdeB7v160006Ev, symObjAddr: 0x4E34, symBinAddr: 0x100008CD8, symSize: 0x28 }
  - { offsetInCU: 0xE88F, offset: 0x177EC, size: 0x8, addend: 0x0, symName: __ZNSt3__116reverse_iteratorIP6ClientEppB7v160006Ev, symObjAddr: 0x4E5C, symBinAddr: 0x100008D00, symSize: 0x20 }
  - { offsetInCU: 0xE8B3, offset: 0x17810, size: 0x8, addend: 0x0, symName: __ZNSt3__128__exception_guard_exceptionsINS_29_AllocatorDestroyRangeReverseINS_9allocatorI6ClientEENS_16reverse_iteratorIPS3_EEEEE10__completeB7v160006Ev, symObjAddr: 0x4E7C, symBinAddr: 0x100008D20, symSize: 0x1C }
  - { offsetInCU: 0xE8D7, offset: 0x17834, size: 0x8, addend: 0x0, symName: __ZNSt3__128__exception_guard_exceptionsINS_29_AllocatorDestroyRangeReverseINS_9allocatorI6ClientEENS_16reverse_iteratorIPS3_EEEEED1B7v160006Ev, symObjAddr: 0x4E98, symBinAddr: 0x100008D3C, symSize: 0x2C }
  - { offsetInCU: 0xE8FF, offset: 0x1785C, size: 0x8, addend: 0x0, symName: __ZNSt3__128__exception_guard_exceptionsINS_29_AllocatorDestroyRangeReverseINS_9allocatorI6ClientEENS_16reverse_iteratorIPS3_EEEEEC1B7v160006ES8_, symObjAddr: 0x4EC4, symBinAddr: 0x100008D68, symSize: 0x34 }
  - { offsetInCU: 0xE936, offset: 0x17893, size: 0x8, addend: 0x0, symName: __ZNSt3__128__exception_guard_exceptionsINS_29_AllocatorDestroyRangeReverseINS_9allocatorI6ClientEENS_16reverse_iteratorIPS3_EEEEEC2B7v160006ES8_, symObjAddr: 0x4EF8, symBinAddr: 0x100008D9C, symSize: 0x30 }
  - { offsetInCU: 0xE96D, offset: 0x178CA, size: 0x8, addend: 0x0, symName: __ZNSt3__129_AllocatorDestroyRangeReverseINS_9allocatorI6ClientEENS_16reverse_iteratorIPS2_EEEC2B7v160006ERS3_RS6_S9_, symObjAddr: 0x4F28, symBinAddr: 0x100008DCC, symSize: 0x38 }
  - { offsetInCU: 0xE9C2, offset: 0x1791F, size: 0x8, addend: 0x0, symName: __ZNSt3__19allocatorI6ClientE9constructB7v160006IS1_JRKS1_EEEvPT_DpOT0_, symObjAddr: 0x4F60, symBinAddr: 0x100008E04, symSize: 0x30 }
  - { offsetInCU: 0xEA1D, offset: 0x1797A, size: 0x8, addend: 0x0, symName: __ZNSt3__119__to_address_helperINS_16reverse_iteratorIP6ClientEEvE6__callB7v160006ERKS4_, symObjAddr: 0x4F90, symBinAddr: 0x100008E34, symSize: 0x4C }
  - { offsetInCU: 0xEA3F, offset: 0x1799C, size: 0x8, addend: 0x0, symName: __ZNKSt3__116reverse_iteratorIP6ClientEptB7v160006Ev, symObjAddr: 0x4FDC, symBinAddr: 0x100008E80, symSize: 0x24 }
  - { offsetInCU: 0xEA63, offset: 0x179C0, size: 0x8, addend: 0x0, symName: __ZNSt3__128__exception_guard_exceptionsINS_29_AllocatorDestroyRangeReverseINS_9allocatorI6ClientEENS_16reverse_iteratorIPS3_EEEEED2B7v160006Ev, symObjAddr: 0x5000, symBinAddr: 0x100008EA4, symSize: 0x48 }
  - { offsetInCU: 0xEA8B, offset: 0x179E8, size: 0x8, addend: 0x0, symName: __ZNKSt3__129_AllocatorDestroyRangeReverseINS_9allocatorI6ClientEENS_16reverse_iteratorIPS2_EEEclB7v160006Ev, symObjAddr: 0x5048, symBinAddr: 0x100008EEC, symSize: 0xB4 }
  - { offsetInCU: 0xEAB0, offset: 0x17A0D, size: 0x8, addend: 0x0, symName: __ZNSt3__116reverse_iteratorINS0_IP6ClientEEEC1B7v160006ES3_, symObjAddr: 0x516C, symBinAddr: 0x100009010, symSize: 0x3C }
  - { offsetInCU: 0xEAE6, offset: 0x17A43, size: 0x8, addend: 0x0, symName: __ZNSt3__116reverse_iteratorINS0_IP6ClientEEEppB7v160006Ev, symObjAddr: 0x522C, symBinAddr: 0x1000090D0, symSize: 0x30 }
  - { offsetInCU: 0xEB0A, offset: 0x17A67, size: 0x8, addend: 0x0, symName: __ZNKSt3__116reverse_iteratorINS0_IP6ClientEEE4baseB7v160006Ev, symObjAddr: 0x525C, symBinAddr: 0x100009100, symSize: 0x24 }
  - { offsetInCU: 0xEB33, offset: 0x17A90, size: 0x8, addend: 0x0, symName: __ZNSt3__119__to_address_helperINS_16reverse_iteratorINS1_IP6ClientEEEEvE6__callB7v160006ERKS5_, symObjAddr: 0x5280, symBinAddr: 0x100009124, symSize: 0x4C }
  - { offsetInCU: 0xEB55, offset: 0x17AB2, size: 0x8, addend: 0x0, symName: __ZNKSt3__116reverse_iteratorINS0_IP6ClientEEEptB7v160006Ev, symObjAddr: 0x52CC, symBinAddr: 0x100009170, symSize: 0x24 }
  - { offsetInCU: 0xEB79, offset: 0x17AD6, size: 0x8, addend: 0x0, symName: __ZNKSt3__116reverse_iteratorINS0_IP6ClientEEEdeB7v160006Ev, symObjAddr: 0x52F0, symBinAddr: 0x100009194, symSize: 0x34 }
  - { offsetInCU: 0xEBAB, offset: 0x17B08, size: 0x8, addend: 0x0, symName: __ZNSt3__116reverse_iteratorIP6ClientEmmB7v160006Ev, symObjAddr: 0x5324, symBinAddr: 0x1000091C8, symSize: 0x20 }
  - { offsetInCU: 0xEBCF, offset: 0x17B2C, size: 0x8, addend: 0x0, symName: __ZNSt3__116reverse_iteratorINS0_IP6ClientEEEC2B7v160006ES3_, symObjAddr: 0x5344, symBinAddr: 0x1000091E8, symSize: 0x2C }
  - { offsetInCU: 0xEC05, offset: 0x17B62, size: 0x8, addend: 0x0, symName: __ZNSt3__116reverse_iteratorIP6ClientEC2B7v160006ES2_, symObjAddr: 0x5370, symBinAddr: 0x100009214, symSize: 0x28 }
  - { offsetInCU: 0xEC3B, offset: 0x17B98, size: 0x8, addend: 0x0, symName: __ZNSt3__114__split_bufferI6ClientRNS_9allocatorIS1_EEED2Ev, symObjAddr: 0x5398, symBinAddr: 0x10000923C, symSize: 0x80 }
  - { offsetInCU: 0xEC66, offset: 0x17BC3, size: 0x8, addend: 0x0, symName: __ZNSt3__114__split_bufferI6ClientRNS_9allocatorIS1_EEE5clearB7v160006Ev, symObjAddr: 0x5418, symBinAddr: 0x1000092BC, symSize: 0x28 }
  - { offsetInCU: 0xEC8A, offset: 0x17BE7, size: 0x8, addend: 0x0, symName: __ZNKSt3__114__split_bufferI6ClientRNS_9allocatorIS1_EEE8capacityB7v160006Ev, symObjAddr: 0x5440, symBinAddr: 0x1000092E4, symSize: 0x40 }
  - { offsetInCU: 0xECAE, offset: 0x17C0B, size: 0x8, addend: 0x0, symName: __ZNSt3__114__split_bufferI6ClientRNS_9allocatorIS1_EEE17__destruct_at_endB7v160006EPS1_, symObjAddr: 0x5480, symBinAddr: 0x100009324, symSize: 0x2C }
  - { offsetInCU: 0xECE0, offset: 0x17C3D, size: 0x8, addend: 0x0, symName: __ZNSt3__114__split_bufferI6ClientRNS_9allocatorIS1_EEE17__destruct_at_endB7v160006EPS1_NS_17integral_constantIbLb0EEE, symObjAddr: 0x54AC, symBinAddr: 0x100009350, symSize: 0x94 }
  - { offsetInCU: 0xED1E, offset: 0x17C7B, size: 0x8, addend: 0x0, symName: __ZNKSt3__114__split_bufferI6ClientRNS_9allocatorIS1_EEE9__end_capB7v160006Ev, symObjAddr: 0x5540, symBinAddr: 0x1000093E4, symSize: 0x28 }
  - { offsetInCU: 0xED42, offset: 0x17C9F, size: 0x8, addend: 0x0, symName: __ZNKSt3__117__compressed_pairIP6ClientRNS_9allocatorIS1_EEE5firstB7v160006Ev, symObjAddr: 0x5568, symBinAddr: 0x10000940C, symSize: 0x24 }
  - { offsetInCU: 0xED8E, offset: 0x17CEB, size: 0x8, addend: 0x0, symName: __ZNSt3__112basic_stringIcNS_11char_traitsIcEENS_9allocatorIcEEEC2B7v160006IDnEEPKc, symObjAddr: 0x6100, symBinAddr: 0x100009430, symSize: 0x60 }
  - { offsetInCU: 0xEDCB, offset: 0x17D28, size: 0x8, addend: 0x0, symName: __ZNKSt3__112basic_stringIcNS_11char_traitsIcEENS_9allocatorIcEEE4sizeB7v160006Ev, symObjAddr: 0x6160, symBinAddr: 0x100009490, symSize: 0x54 }
  - { offsetInCU: 0xEDEF, offset: 0x17D4C, size: 0x8, addend: 0x0, symName: __ZNKSt3__112basic_stringIcNS_11char_traitsIcEENS_9allocatorIcEEE15__get_long_sizeB7v160006Ev, symObjAddr: 0x61B4, symBinAddr: 0x1000094E4, symSize: 0x28 }
  - { offsetInCU: 0xEE13, offset: 0x17D70, size: 0x8, addend: 0x0, symName: __ZNKSt3__112basic_stringIcNS_11char_traitsIcEENS_9allocatorIcEEE16__get_short_sizeB7v160006Ev, symObjAddr: 0x61DC, symBinAddr: 0x10000950C, symSize: 0x34 }
  - { offsetInCU: 0xEE37, offset: 0x17D94, size: 0x8, addend: 0x0, symName: __ZNSt3__111char_traitsIcE7compareEPKcS3_m, symObjAddr: 0x6210, symBinAddr: 0x100009540, symSize: 0x80 }
  - { offsetInCU: 0xEE75, offset: 0x17DD2, size: 0x8, addend: 0x0, symName: __ZNSt3__112basic_stringIcNS_11char_traitsIcEENS_9allocatorIcEEEC2B7v160006Ev, symObjAddr: 0x62C4, symBinAddr: 0x1000095F4, symSize: 0x44 }
  - { offsetInCU: 0xEE9D, offset: 0x17DFA, size: 0x8, addend: 0x0, symName: __ZNSt3__112basic_stringIcNS_11char_traitsIcEENS_9allocatorIcEEE14__default_initB7v160006Ev, symObjAddr: 0x6308, symBinAddr: 0x100009638, symSize: 0xB0 }
  - { offsetInCU: 0xEEEE, offset: 0x17E4B, size: 0x8, addend: 0x0, symName: __ZNSt3__117__compressed_pairINS_12basic_stringIcNS_11char_traitsIcEENS_9allocatorIcEEE5__repES5_E5firstB7v160006Ev, symObjAddr: 0x63B8, symBinAddr: 0x1000096E8, symSize: 0x24 }
  - { offsetInCU: 0xEF12, offset: 0x17E6F, size: 0x8, addend: 0x0, symName: __ZNSt3__112basic_stringIcNS_11char_traitsIcEENS_9allocatorIcEEE11__recommendB7v160006Em, symObjAddr: 0x63DC, symBinAddr: 0x10000970C, symSize: 0x9C }
  - { offsetInCU: 0xEF44, offset: 0x17EA1, size: 0x8, addend: 0x0, symName: __ZNSt3__116allocator_traitsINS_9allocatorIcEEE8allocateB7v160006ERS2_m, symObjAddr: 0x6478, symBinAddr: 0x1000097A8, symSize: 0x2C }
  - { offsetInCU: 0xEF76, offset: 0x17ED3, size: 0x8, addend: 0x0, symName: __ZNSt3__112basic_stringIcNS_11char_traitsIcEENS_9allocatorIcEEE7__allocB7v160006Ev, symObjAddr: 0x64A4, symBinAddr: 0x1000097D4, symSize: 0x24 }
  - { offsetInCU: 0xEF9A, offset: 0x17EF7, size: 0x8, addend: 0x0, symName: __ZNSt3__112basic_stringIcNS_11char_traitsIcEENS_9allocatorIcEEE16__begin_lifetimeB7v160006EPcm, symObjAddr: 0x64C8, symBinAddr: 0x1000097F8, symSize: 0x14 }
  - { offsetInCU: 0xEFCC, offset: 0x17F29, size: 0x8, addend: 0x0, symName: __ZNSt3__112basic_stringIcNS_11char_traitsIcEENS_9allocatorIcEEE18__set_long_pointerB7v160006EPc, symObjAddr: 0x64DC, symBinAddr: 0x10000980C, symSize: 0x38 }
  - { offsetInCU: 0xEFFF, offset: 0x17F5C, size: 0x8, addend: 0x0, symName: __ZNSt3__112basic_stringIcNS_11char_traitsIcEENS_9allocatorIcEEE14__set_long_capB7v160006Em, symObjAddr: 0x6514, symBinAddr: 0x100009844, symSize: 0x70 }
  - { offsetInCU: 0xF032, offset: 0x17F8F, size: 0x8, addend: 0x0, symName: __ZNSt3__112basic_stringIcNS_11char_traitsIcEENS_9allocatorIcEEE15__set_long_sizeB7v160006Em, symObjAddr: 0x6584, symBinAddr: 0x1000098B4, symSize: 0x38 }
  - { offsetInCU: 0xF065, offset: 0x17FC2, size: 0x8, addend: 0x0, symName: __ZNSt3__122__compressed_pair_elemINS_12basic_stringIcNS_11char_traitsIcEENS_9allocatorIcEEE5__repELi0ELb0EE5__getB7v160006Ev, symObjAddr: 0x65BC, symBinAddr: 0x1000098EC, symSize: 0x14 }
  - { offsetInCU: 0xF089, offset: 0x17FE6, size: 0x8, addend: 0x0, symName: __ZNSt3__112basic_stringIcNS_11char_traitsIcEENS_9allocatorIcEEE10__align_itB7v160006ILm16EEEmm, symObjAddr: 0x65D0, symBinAddr: 0x100009900, symSize: 0x1C }
  - { offsetInCU: 0xF0B6, offset: 0x18013, size: 0x8, addend: 0x0, symName: __ZNSt3__19allocatorIcE8allocateB7v160006Em, symObjAddr: 0x65EC, symBinAddr: 0x10000991C, symSize: 0x84 }
  - { offsetInCU: 0xF0F2, offset: 0x1804F, size: 0x8, addend: 0x0, symName: __ZNSt3__116allocator_traitsINS_9allocatorIcEEE8max_sizeB7v160006IS2_vEEmRKS2_, symObjAddr: 0x6670, symBinAddr: 0x1000099A0, symSize: 0x24 }
  - { offsetInCU: 0xF120, offset: 0x1807D, size: 0x8, addend: 0x0, symName: __ZNKSt3__19allocatorIcE8max_sizeB7v160006Ev, symObjAddr: 0x6694, symBinAddr: 0x1000099C4, symSize: 0x14 }
  - { offsetInCU: 0xF144, offset: 0x180A1, size: 0x8, addend: 0x0, symName: __ZNSt3__117__compressed_pairINS_12basic_stringIcNS_11char_traitsIcEENS_9allocatorIcEEE5__repES5_E6secondB7v160006Ev, symObjAddr: 0x66A8, symBinAddr: 0x1000099D8, symSize: 0x24 }
  - { offsetInCU: 0xF168, offset: 0x180C5, size: 0x8, addend: 0x0, symName: __ZNSt3__122__compressed_pair_elemINS_9allocatorIcEELi1ELb1EE5__getB7v160006Ev, symObjAddr: 0x66CC, symBinAddr: 0x1000099FC, symSize: 0x14 }
  - { offsetInCU: 0xF18C, offset: 0x180E9, size: 0x8, addend: 0x0, symName: __ZNSt3__16vectorINS_12basic_stringIcNS_11char_traitsIcEENS_9allocatorIcEEEENS4_IS6_EEEC2B7v160006Ev, symObjAddr: 0x66E0, symBinAddr: 0x100009A10, symSize: 0x4C }
  - { offsetInCU: 0xF1B4, offset: 0x18111, size: 0x8, addend: 0x0, symName: __ZNSt3__117__compressed_pairIPNS_12basic_stringIcNS_11char_traitsIcEENS_9allocatorIcEEEENS4_IS6_EEEC1B7v160006IDnNS_18__default_init_tagEEEOT_OT0_, symObjAddr: 0x672C, symBinAddr: 0x100009A5C, symSize: 0x3C }
  - { offsetInCU: 0xF20A, offset: 0x18167, size: 0x8, addend: 0x0, symName: __ZNSt3__117__compressed_pairIPNS_12basic_stringIcNS_11char_traitsIcEENS_9allocatorIcEEEENS4_IS6_EEEC2B7v160006IDnNS_18__default_init_tagEEEOT_OT0_, symObjAddr: 0x6778, symBinAddr: 0x100009AA8, symSize: 0x40 }
  - { offsetInCU: 0xF260, offset: 0x181BD, size: 0x8, addend: 0x0, symName: __ZNSt3__122__compressed_pair_elemIPNS_12basic_stringIcNS_11char_traitsIcEENS_9allocatorIcEEEELi0ELb0EEC2B7v160006IDnvEEOT_, symObjAddr: 0x67B8, symBinAddr: 0x100009AE8, symSize: 0x1C }
  - { offsetInCU: 0xF2A1, offset: 0x181FE, size: 0x8, addend: 0x0, symName: __ZNSt3__122__compressed_pair_elemINS_9allocatorINS_12basic_stringIcNS_11char_traitsIcEENS1_IcEEEEEELi1ELb1EEC2B7v160006ENS_18__default_init_tagE, symObjAddr: 0x67D4, symBinAddr: 0x100009B04, symSize: 0x2C }
  - { offsetInCU: 0xF2D3, offset: 0x18230, size: 0x8, addend: 0x0, symName: __ZNSt3__19allocatorINS_12basic_stringIcNS_11char_traitsIcEENS0_IcEEEEEC2B7v160006Ev, symObjAddr: 0x6800, symBinAddr: 0x100009B30, symSize: 0x2C }
  - { offsetInCU: 0xF2FB, offset: 0x18258, size: 0x8, addend: 0x0, symName: __ZNSt3__116__non_trivial_ifILb1ENS_9allocatorINS_12basic_stringIcNS_11char_traitsIcEENS1_IcEEEEEEEC2B7v160006Ev, symObjAddr: 0x682C, symBinAddr: 0x100009B5C, symSize: 0x14 }
  - { offsetInCU: 0xF323, offset: 0x18280, size: 0x8, addend: 0x0, symName: __ZNSt3__16vectorINS_12basic_stringIcNS_11char_traitsIcEENS_9allocatorIcEEEENS4_IS6_EEED2B7v160006Ev, symObjAddr: 0x6840, symBinAddr: 0x100009B70, symSize: 0x3C }
  - { offsetInCU: 0xF34B, offset: 0x182A8, size: 0x8, addend: 0x0, symName: __ZNSt3__16vectorINS_12basic_stringIcNS_11char_traitsIcEENS_9allocatorIcEEEENS4_IS6_EEE16__destroy_vectorC1ERS8_, symObjAddr: 0x687C, symBinAddr: 0x100009BAC, symSize: 0x34 }
  - { offsetInCU: 0xF382, offset: 0x182DF, size: 0x8, addend: 0x0, symName: __ZNSt3__16vectorINS_12basic_stringIcNS_11char_traitsIcEENS_9allocatorIcEEEENS4_IS6_EEE16__destroy_vectorclB7v160006Ev, symObjAddr: 0x68B0, symBinAddr: 0x100009BE0, symSize: 0x9C }
  - { offsetInCU: 0xF3A6, offset: 0x18303, size: 0x8, addend: 0x0, symName: __ZNSt3__16vectorINS_12basic_stringIcNS_11char_traitsIcEENS_9allocatorIcEEEENS4_IS6_EEE16__destroy_vectorC2ERS8_, symObjAddr: 0x694C, symBinAddr: 0x100009C7C, symSize: 0x20 }
  - { offsetInCU: 0xF3DD, offset: 0x1833A, size: 0x8, addend: 0x0, symName: __ZNKSt3__16vectorINS_12basic_stringIcNS_11char_traitsIcEENS_9allocatorIcEEEENS4_IS6_EEE17__annotate_deleteB7v160006Ev, symObjAddr: 0x696C, symBinAddr: 0x100009C9C, symSize: 0xD4 }
  - { offsetInCU: 0xF401, offset: 0x1835E, size: 0x8, addend: 0x0, symName: __ZNSt3__16vectorINS_12basic_stringIcNS_11char_traitsIcEENS_9allocatorIcEEEENS4_IS6_EEE7__clearB7v160006Ev, symObjAddr: 0x6A50, symBinAddr: 0x100009D80, symSize: 0x28 }
  - { offsetInCU: 0xF425, offset: 0x18382, size: 0x8, addend: 0x0, symName: __ZNSt3__116allocator_traitsINS_9allocatorINS_12basic_stringIcNS_11char_traitsIcEENS1_IcEEEEEEE10deallocateB7v160006ERS7_PS6_m, symObjAddr: 0x6A78, symBinAddr: 0x100009DA8, symSize: 0x34 }
  - { offsetInCU: 0xF466, offset: 0x183C3, size: 0x8, addend: 0x0, symName: __ZNSt3__16vectorINS_12basic_stringIcNS_11char_traitsIcEENS_9allocatorIcEEEENS4_IS6_EEE7__allocB7v160006Ev, symObjAddr: 0x6AAC, symBinAddr: 0x100009DDC, symSize: 0x28 }
  - { offsetInCU: 0xF48A, offset: 0x183E7, size: 0x8, addend: 0x0, symName: __ZNKSt3__16vectorINS_12basic_stringIcNS_11char_traitsIcEENS_9allocatorIcEEEENS4_IS6_EEE8capacityB7v160006Ev, symObjAddr: 0x6AD4, symBinAddr: 0x100009E04, symSize: 0x40 }
  - { offsetInCU: 0xF4AE, offset: 0x1840B, size: 0x8, addend: 0x0, symName: __ZNKSt3__16vectorINS_12basic_stringIcNS_11char_traitsIcEENS_9allocatorIcEEEENS4_IS6_EEE31__annotate_contiguous_containerB7v160006EPKvSA_SA_SA_, symObjAddr: 0x6B14, symBinAddr: 0x100009E44, symSize: 0x20 }
  - { offsetInCU: 0xF502, offset: 0x1845F, size: 0x8, addend: 0x0, symName: __ZNKSt3__16vectorINS_12basic_stringIcNS_11char_traitsIcEENS_9allocatorIcEEEENS4_IS6_EEE4dataB7v160006Ev, symObjAddr: 0x6B34, symBinAddr: 0x100009E64, symSize: 0x28 }
  - { offsetInCU: 0xF526, offset: 0x18483, size: 0x8, addend: 0x0, symName: __ZNSt3__16vectorINS_12basic_stringIcNS_11char_traitsIcEENS_9allocatorIcEEEENS4_IS6_EEE22__base_destruct_at_endB7v160006EPS6_, symObjAddr: 0x6B70, symBinAddr: 0x100009EA0, symSize: 0xA0 }
  - { offsetInCU: 0xF568, offset: 0x184C5, size: 0x8, addend: 0x0, symName: __ZNSt3__116allocator_traitsINS_9allocatorINS_12basic_stringIcNS_11char_traitsIcEENS1_IcEEEEEEE7destroyB7v160006IS6_vEEvRS7_PT_, symObjAddr: 0x6C10, symBinAddr: 0x100009F40, symSize: 0x2C }
  - { offsetInCU: 0xF5A5, offset: 0x18502, size: 0x8, addend: 0x0, symName: __ZNSt3__19allocatorINS_12basic_stringIcNS_11char_traitsIcEENS0_IcEEEEE7destroyB7v160006EPS5_, symObjAddr: 0x6C3C, symBinAddr: 0x100009F6C, symSize: 0x28 }
  - { offsetInCU: 0xF5D7, offset: 0x18534, size: 0x8, addend: 0x0, symName: __ZNSt3__19allocatorINS_12basic_stringIcNS_11char_traitsIcEENS0_IcEEEEE10deallocateB7v160006EPS5_m, symObjAddr: 0x6C64, symBinAddr: 0x100009F94, symSize: 0x74 }
  - { offsetInCU: 0xF617, offset: 0x18574, size: 0x8, addend: 0x0, symName: __ZNSt3__117__compressed_pairIPNS_12basic_stringIcNS_11char_traitsIcEENS_9allocatorIcEEEENS4_IS6_EEE6secondB7v160006Ev, symObjAddr: 0x6CD8, symBinAddr: 0x10000A008, symSize: 0x24 }
  - { offsetInCU: 0xF63B, offset: 0x18598, size: 0x8, addend: 0x0, symName: __ZNSt3__122__compressed_pair_elemINS_9allocatorINS_12basic_stringIcNS_11char_traitsIcEENS1_IcEEEEEELi1ELb1EE5__getB7v160006Ev, symObjAddr: 0x6CFC, symBinAddr: 0x10000A02C, symSize: 0x14 }
  - { offsetInCU: 0xF65F, offset: 0x185BC, size: 0x8, addend: 0x0, symName: __ZNKSt3__16vectorINS_12basic_stringIcNS_11char_traitsIcEENS_9allocatorIcEEEENS4_IS6_EEE9__end_capB7v160006Ev, symObjAddr: 0x6D10, symBinAddr: 0x10000A040, symSize: 0x28 }
  - { offsetInCU: 0xF683, offset: 0x185E0, size: 0x8, addend: 0x0, symName: __ZNKSt3__117__compressed_pairIPNS_12basic_stringIcNS_11char_traitsIcEENS_9allocatorIcEEEENS4_IS6_EEE5firstB7v160006Ev, symObjAddr: 0x6D38, symBinAddr: 0x10000A068, symSize: 0x24 }
  - { offsetInCU: 0xF6A7, offset: 0x18604, size: 0x8, addend: 0x0, symName: __ZNKSt3__122__compressed_pair_elemIPNS_12basic_stringIcNS_11char_traitsIcEENS_9allocatorIcEEEELi0ELb0EE5__getB7v160006Ev, symObjAddr: 0x6D5C, symBinAddr: 0x10000A08C, symSize: 0x14 }
  - { offsetInCU: 0xF6CB, offset: 0x18628, size: 0x8, addend: 0x0, symName: __ZNSt3__19basic_iosIcNS_11char_traitsIcEEEC2B7v160006Ev, symObjAddr: 0x6D70, symBinAddr: 0x10000A0A0, symSize: 0x44 }
  - { offsetInCU: 0xF6F3, offset: 0x18650, size: 0x8, addend: 0x0, symName: __ZNSt3__113basic_istreamIcNS_11char_traitsIcEEEC2B7v160006EPNS_15basic_streambufIcS2_EE, symObjAddr: 0x6DB4, symBinAddr: 0x10000A0E4, symSize: 0x64 }
  - { offsetInCU: 0xF735, offset: 0x18692, size: 0x8, addend: 0x0, symName: __ZNSt3__115basic_stringbufIcNS_11char_traitsIcEENS_9allocatorIcEEEC1B7v160006ERKNS_12basic_stringIcS2_S4_EEj, symObjAddr: 0x6E18, symBinAddr: 0x10000A148, symSize: 0x3C }
  - { offsetInCU: 0xF779, offset: 0x186D6, size: 0x8, addend: 0x0, symName: __ZNSt3__18ios_baseC2B7v160006Ev, symObjAddr: 0x6E54, symBinAddr: 0x10000A184, symSize: 0x24 }
  - { offsetInCU: 0xF7A1, offset: 0x186FE, size: 0x8, addend: 0x0, symName: __ZNSt3__19basic_iosIcNS_11char_traitsIcEEE4initB7v160006EPNS_15basic_streambufIcS2_EE, symObjAddr: 0x6E78, symBinAddr: 0x10000A1A8, symSize: 0x44 }
  - { offsetInCU: 0xF7D6, offset: 0x18733, size: 0x8, addend: 0x0, symName: __ZNSt3__115basic_stringbufIcNS_11char_traitsIcEENS_9allocatorIcEEEC2B7v160006ERKNS_12basic_stringIcS2_S4_EEj, symObjAddr: 0x6EBC, symBinAddr: 0x10000A1EC, symSize: 0xD8 }
  - { offsetInCU: 0xF81A, offset: 0x18777, size: 0x8, addend: 0x0, symName: __ZNKSt3__112basic_stringIcNS_11char_traitsIcEENS_9allocatorIcEEE13get_allocatorB7v160006Ev, symObjAddr: 0x6F94, symBinAddr: 0x10000A2C4, symSize: 0x24 }
  - { offsetInCU: 0xF83E, offset: 0x1879B, size: 0x8, addend: 0x0, symName: __ZNSt3__112basic_stringIcNS_11char_traitsIcEENS_9allocatorIcEEEC1B7v160006ERKS4_, symObjAddr: 0x6FB8, symBinAddr: 0x10000A2E8, symSize: 0x34 }
  - { offsetInCU: 0xF875, offset: 0x187D2, size: 0x8, addend: 0x0, symName: __ZNKSt3__112basic_stringIcNS_11char_traitsIcEENS_9allocatorIcEEE7__allocB7v160006Ev, symObjAddr: 0x6FEC, symBinAddr: 0x10000A31C, symSize: 0x24 }
  - { offsetInCU: 0xF899, offset: 0x187F6, size: 0x8, addend: 0x0, symName: __ZNKSt3__117__compressed_pairINS_12basic_stringIcNS_11char_traitsIcEENS_9allocatorIcEEE5__repES5_E6secondB7v160006Ev, symObjAddr: 0x7010, symBinAddr: 0x10000A340, symSize: 0x24 }
  - { offsetInCU: 0xF8BD, offset: 0x1881A, size: 0x8, addend: 0x0, symName: __ZNKSt3__122__compressed_pair_elemINS_9allocatorIcEELi1ELb1EE5__getB7v160006Ev, symObjAddr: 0x7034, symBinAddr: 0x10000A364, symSize: 0x14 }
  - { offsetInCU: 0xF8E1, offset: 0x1883E, size: 0x8, addend: 0x0, symName: __ZNSt3__112basic_stringIcNS_11char_traitsIcEENS_9allocatorIcEEEC2B7v160006ERKS4_, symObjAddr: 0x7048, symBinAddr: 0x10000A378, symSize: 0x48 }
  - { offsetInCU: 0xF918, offset: 0x18875, size: 0x8, addend: 0x0, symName: __ZNSt3__117__compressed_pairINS_12basic_stringIcNS_11char_traitsIcEENS_9allocatorIcEEE5__repES5_EC1B7v160006INS_18__default_init_tagERKS5_EEOT_OT0_, symObjAddr: 0x7090, symBinAddr: 0x10000A3C0, symSize: 0x3C }
  - { offsetInCU: 0xF96E, offset: 0x188CB, size: 0x8, addend: 0x0, symName: __ZNSt3__117__compressed_pairINS_12basic_stringIcNS_11char_traitsIcEENS_9allocatorIcEEE5__repES5_EC2B7v160006INS_18__default_init_tagERKS5_EEOT_OT0_, symObjAddr: 0x70CC, symBinAddr: 0x10000A3FC, symSize: 0x40 }
  - { offsetInCU: 0xF9C4, offset: 0x18921, size: 0x8, addend: 0x0, symName: __ZNSt3__122__compressed_pair_elemINS_9allocatorIcEELi1ELb1EEC2B7v160006IRKS2_vEEOT_, symObjAddr: 0x710C, symBinAddr: 0x10000A43C, symSize: 0x18 }
  - { offsetInCU: 0xFA05, offset: 0x18962, size: 0x8, addend: 0x0, symName: __ZNKSt3__18ios_base3eofB7v160006Ev, symObjAddr: 0x7124, symBinAddr: 0x10000A454, symSize: 0x24 }
  - { offsetInCU: 0xFA49, offset: 0x189A6, size: 0x8, addend: 0x0, symName: __ZNKSt3__113basic_istreamIcNS_11char_traitsIcEEE6sentrycvbB7v160006Ev, symObjAddr: 0x7148, symBinAddr: 0x10000A478, symSize: 0x1C }
  - { offsetInCU: 0xFA6D, offset: 0x189CA, size: 0x8, addend: 0x0, symName: __ZNSt3__112basic_stringIcNS_11char_traitsIcEENS_9allocatorIcEEE5clearB7v160006Ev, symObjAddr: 0x7164, symBinAddr: 0x10000A494, symSize: 0x9C }
  - { offsetInCU: 0xFA93, offset: 0x189F0, size: 0x8, addend: 0x0, symName: __ZNKSt3__112basic_stringIcNS_11char_traitsIcEENS_9allocatorIcEEE8max_sizeB7v160006Ev, symObjAddr: 0x7200, symBinAddr: 0x10000A530, symSize: 0xAC }
  - { offsetInCU: 0xFAE4, offset: 0x18A41, size: 0x8, addend: 0x0, symName: __ZNSt3__115basic_streambufIcNS_11char_traitsIcEEE5sgetcB7v160006Ev, symObjAddr: 0x72AC, symBinAddr: 0x10000A5DC, symSize: 0x70 }
  - { offsetInCU: 0xFB08, offset: 0x18A65, size: 0x8, addend: 0x0, symName: __ZNSt3__111char_traitsIcE12to_char_typeEi, symObjAddr: 0x731C, symBinAddr: 0x10000A64C, symSize: 0x18 }
  - { offsetInCU: 0xFB2A, offset: 0x18A87, size: 0x8, addend: 0x0, symName: __ZNKSt3__15ctypeIcE2isB7v160006Ejc, symObjAddr: 0x7334, symBinAddr: 0x10000A664, symSize: 0x7C }
  - { offsetInCU: 0xFB6C, offset: 0x18AC9, size: 0x8, addend: 0x0, symName: __ZNSt3__115basic_streambufIcNS_11char_traitsIcEEE6sbumpcB7v160006Ev, symObjAddr: 0x73B0, symBinAddr: 0x10000A6E0, symSize: 0x78 }
  - { offsetInCU: 0xFB90, offset: 0x18AED, size: 0x8, addend: 0x0, symName: __ZNSt3__18ios_base18__setstate_nothrowB7v160006Ej, symObjAddr: 0x7428, symBinAddr: 0x10000A758, symSize: 0x64 }
  - { offsetInCU: 0xFBC3, offset: 0x18B20, size: 0x8, addend: 0x0, symName: __ZNKSt3__19basic_iosIcNS_11char_traitsIcEEE10exceptionsB7v160006Ev, symObjAddr: 0x748C, symBinAddr: 0x10000A7BC, symSize: 0x24 }
  - { offsetInCU: 0xFBE7, offset: 0x18B44, size: 0x8, addend: 0x0, symName: __ZNSt3__111char_traitsIcE6assignERcRKc, symObjAddr: 0x74C0, symBinAddr: 0x10000A7F0, symSize: 0x24 }
  - { offsetInCU: 0xFC17, offset: 0x18B74, size: 0x8, addend: 0x0, symName: __ZNSt3__112basic_stringIcNS_11char_traitsIcEENS_9allocatorIcEEE18__get_long_pointerB7v160006Ev, symObjAddr: 0x74E4, symBinAddr: 0x10000A814, symSize: 0x28 }
  - { offsetInCU: 0xFC3B, offset: 0x18B98, size: 0x8, addend: 0x0, symName: __ZNSt3__112basic_stringIcNS_11char_traitsIcEENS_9allocatorIcEEE19__get_short_pointerB7v160006Ev, symObjAddr: 0x750C, symBinAddr: 0x10000A83C, symSize: 0x28 }
  - { offsetInCU: 0xFC5F, offset: 0x18BBC, size: 0x8, addend: 0x0, symName: __ZNSt3__112basic_stringIcNS_11char_traitsIcEENS_9allocatorIcEEE16__set_short_sizeB7v160006Em, symObjAddr: 0x7534, symBinAddr: 0x10000A864, symSize: 0x78 }
  - { offsetInCU: 0xFC92, offset: 0x18BEF, size: 0x8, addend: 0x0, symName: __ZNSt3__114pointer_traitsIPcE10pointer_toB7v160006ERc, symObjAddr: 0x75AC, symBinAddr: 0x10000A8DC, symSize: 0x14 }
  - { offsetInCU: 0xFCB4, offset: 0x18C11, size: 0x8, addend: 0x0, symName: __ZNSt3__114numeric_limitsImE3maxB7v160006Ev, symObjAddr: 0x75C0, symBinAddr: 0x10000A8F0, symSize: 0x14 }
  - { offsetInCU: 0xFCC8, offset: 0x18C25, size: 0x8, addend: 0x0, symName: __ZNSt3__123__libcpp_numeric_limitsImLb1EE3maxB7v160006Ev, symObjAddr: 0x75D4, symBinAddr: 0x10000A904, symSize: 0x8 }
  - { offsetInCU: 0xFCDB, offset: 0x18C38, size: 0x8, addend: 0x0, symName: __ZNSt3__111char_traitsIcE11to_int_typeEc, symObjAddr: 0x75DC, symBinAddr: 0x10000A90C, symSize: 0x14 }
  - { offsetInCU: 0xFCFC, offset: 0x18C59, size: 0x8, addend: 0x0, symName: __Z7isasciii, symObjAddr: 0x75F0, symBinAddr: 0x10000A920, symSize: 0x24 }
  - { offsetInCU: 0xFD29, offset: 0x18C86, size: 0x8, addend: 0x0, symName: __ZNKSt3__18ios_base10exceptionsB7v160006Ev, symObjAddr: 0x7614, symBinAddr: 0x10000A944, symSize: 0x18 }
  - { offsetInCU: 0xFD4F, offset: 0x18CAC, size: 0x8, addend: 0x0, symName: __ZNSt3__16vectorINS_12basic_stringIcNS_11char_traitsIcEENS_9allocatorIcEEEENS4_IS6_EEE9__end_capB7v160006Ev, symObjAddr: 0x762C, symBinAddr: 0x10000A95C, symSize: 0x28 }
  - { offsetInCU: 0xFD73, offset: 0x18CD0, size: 0x8, addend: 0x0, symName: __ZNSt3__16vectorINS_12basic_stringIcNS_11char_traitsIcEENS_9allocatorIcEEEENS4_IS6_EEE22__construct_one_at_endB7v160006IJRKS6_EEEvDpOT_, symObjAddr: 0x7654, symBinAddr: 0x10000A984, symSize: 0x98 }
  - { offsetInCU: 0xFDC2, offset: 0x18D1F, size: 0x8, addend: 0x0, symName: __ZNSt3__16vectorINS_12basic_stringIcNS_11char_traitsIcEENS_9allocatorIcEEEENS4_IS6_EEE21__push_back_slow_pathIRKS6_EEvOT_, symObjAddr: 0x76EC, symBinAddr: 0x10000AA1C, symSize: 0xE0 }
  - { offsetInCU: 0xFE1E, offset: 0x18D7B, size: 0x8, addend: 0x0, symName: __ZNSt3__117__compressed_pairIPNS_12basic_stringIcNS_11char_traitsIcEENS_9allocatorIcEEEENS4_IS6_EEE5firstB7v160006Ev, symObjAddr: 0x77CC, symBinAddr: 0x10000AAFC, symSize: 0x24 }
  - { offsetInCU: 0xFE42, offset: 0x18D9F, size: 0x8, addend: 0x0, symName: __ZNSt3__122__compressed_pair_elemIPNS_12basic_stringIcNS_11char_traitsIcEENS_9allocatorIcEEEELi0ELb0EE5__getB7v160006Ev, symObjAddr: 0x77F0, symBinAddr: 0x10000AB20, symSize: 0x14 }
  - { offsetInCU: 0xFE7F, offset: 0x18DDC, size: 0x8, addend: 0x0, symName: __ZNSt3__16vectorINS_12basic_stringIcNS_11char_traitsIcEENS_9allocatorIcEEEENS4_IS6_EEE21_ConstructTransactionC1B7v160006ERS8_m, symObjAddr: 0x7804, symBinAddr: 0x10000AB34, symSize: 0x3C }
  - { offsetInCU: 0xFEC5, offset: 0x18E22, size: 0x8, addend: 0x0, symName: __ZNSt3__116allocator_traitsINS_9allocatorINS_12basic_stringIcNS_11char_traitsIcEENS1_IcEEEEEEE9constructB7v160006IS6_JRKS6_EvEEvRS7_PT_DpOT0_, symObjAddr: 0x7840, symBinAddr: 0x10000AB70, symSize: 0x34 }
  - { offsetInCU: 0xFF1E, offset: 0x18E7B, size: 0x8, addend: 0x0, symName: __ZNSt3__16vectorINS_12basic_stringIcNS_11char_traitsIcEENS_9allocatorIcEEEENS4_IS6_EEE21_ConstructTransactionD1B7v160006Ev, symObjAddr: 0x7874, symBinAddr: 0x10000ABA4, symSize: 0x2C }
  - { offsetInCU: 0xFF46, offset: 0x18EA3, size: 0x8, addend: 0x0, symName: __ZNSt3__16vectorINS_12basic_stringIcNS_11char_traitsIcEENS_9allocatorIcEEEENS4_IS6_EEE21_ConstructTransactionC2B7v160006ERS8_m, symObjAddr: 0x78A0, symBinAddr: 0x10000ABD0, symSize: 0x4C }
  - { offsetInCU: 0xFF8C, offset: 0x18EE9, size: 0x8, addend: 0x0, symName: __ZNSt3__19allocatorINS_12basic_stringIcNS_11char_traitsIcEENS0_IcEEEEE9constructB7v160006IS5_JRKS5_EEEvPT_DpOT0_, symObjAddr: 0x78EC, symBinAddr: 0x10000AC1C, symSize: 0x30 }
  - { offsetInCU: 0xFFE2, offset: 0x18F3F, size: 0x8, addend: 0x0, symName: __ZNSt3__16vectorINS_12basic_stringIcNS_11char_traitsIcEENS_9allocatorIcEEEENS4_IS6_EEE21_ConstructTransactionD2B7v160006Ev, symObjAddr: 0x791C, symBinAddr: 0x10000AC4C, symSize: 0x20 }
  - { offsetInCU: 0x1000A, offset: 0x18F67, size: 0x8, addend: 0x0, symName: __ZNKSt3__16vectorINS_12basic_stringIcNS_11char_traitsIcEENS_9allocatorIcEEEENS4_IS6_EEE11__recommendB7v160006Em, symObjAddr: 0x793C, symBinAddr: 0x10000AC6C, symSize: 0xB4 }
  - { offsetInCU: 0x1005D, offset: 0x18FBA, size: 0x8, addend: 0x0, symName: __ZNSt3__114__split_bufferINS_12basic_stringIcNS_11char_traitsIcEENS_9allocatorIcEEEERNS4_IS6_EEEC1EmmS8_, symObjAddr: 0x79F0, symBinAddr: 0x10000AD20, symSize: 0x44 }
  - { offsetInCU: 0x100B2, offset: 0x1900F, size: 0x8, addend: 0x0, symName: __ZNSt3__114__split_bufferINS_12basic_stringIcNS_11char_traitsIcEENS_9allocatorIcEEEERNS4_IS6_EEED1Ev, symObjAddr: 0x7B4C, symBinAddr: 0x10000AE7C, symSize: 0x2C }
  - { offsetInCU: 0x100DD, offset: 0x1903A, size: 0x8, addend: 0x0, symName: __ZNKSt3__16vectorINS_12basic_stringIcNS_11char_traitsIcEENS_9allocatorIcEEEENS4_IS6_EEE8max_sizeEv, symObjAddr: 0x7B78, symBinAddr: 0x10000AEA8, symSize: 0x74 }
  - { offsetInCU: 0x10103, offset: 0x19060, size: 0x8, addend: 0x0, symName: __ZNKSt3__16vectorINS_12basic_stringIcNS_11char_traitsIcEENS_9allocatorIcEEEENS4_IS6_EEE20__throw_length_errorB7v160006Ev, symObjAddr: 0x7BEC, symBinAddr: 0x10000AF1C, symSize: 0x1C }
  - { offsetInCU: 0x10131, offset: 0x1908E, size: 0x8, addend: 0x0, symName: __ZNSt3__116allocator_traitsINS_9allocatorINS_12basic_stringIcNS_11char_traitsIcEENS1_IcEEEEEEE8max_sizeB7v160006IS7_vEEmRKS7_, symObjAddr: 0x7C08, symBinAddr: 0x10000AF38, symSize: 0x24 }
  - { offsetInCU: 0x1015F, offset: 0x190BC, size: 0x8, addend: 0x0, symName: __ZNKSt3__16vectorINS_12basic_stringIcNS_11char_traitsIcEENS_9allocatorIcEEEENS4_IS6_EEE7__allocB7v160006Ev, symObjAddr: 0x7C2C, symBinAddr: 0x10000AF5C, symSize: 0x28 }
  - { offsetInCU: 0x10183, offset: 0x190E0, size: 0x8, addend: 0x0, symName: __ZNKSt3__19allocatorINS_12basic_stringIcNS_11char_traitsIcEENS0_IcEEEEE8max_sizeB7v160006Ev, symObjAddr: 0x7C54, symBinAddr: 0x10000AF84, symSize: 0x18 }
  - { offsetInCU: 0x101A7, offset: 0x19104, size: 0x8, addend: 0x0, symName: __ZNKSt3__117__compressed_pairIPNS_12basic_stringIcNS_11char_traitsIcEENS_9allocatorIcEEEENS4_IS6_EEE6secondB7v160006Ev, symObjAddr: 0x7C6C, symBinAddr: 0x10000AF9C, symSize: 0x24 }
  - { offsetInCU: 0x101CB, offset: 0x19128, size: 0x8, addend: 0x0, symName: __ZNKSt3__122__compressed_pair_elemINS_9allocatorINS_12basic_stringIcNS_11char_traitsIcEENS1_IcEEEEEELi1ELb1EE5__getB7v160006Ev, symObjAddr: 0x7C90, symBinAddr: 0x10000AFC0, symSize: 0x14 }
  - { offsetInCU: 0x101EF, offset: 0x1914C, size: 0x8, addend: 0x0, symName: __ZNSt3__114__split_bufferINS_12basic_stringIcNS_11char_traitsIcEENS_9allocatorIcEEEERNS4_IS6_EEEC2EmmS8_, symObjAddr: 0x7CA4, symBinAddr: 0x10000AFD4, symSize: 0xE0 }
  - { offsetInCU: 0x10262, offset: 0x191BF, size: 0x8, addend: 0x0, symName: __ZNSt3__117__compressed_pairIPNS_12basic_stringIcNS_11char_traitsIcEENS_9allocatorIcEEEERNS4_IS6_EEEC1B7v160006IDnS9_EEOT_OT0_, symObjAddr: 0x7D84, symBinAddr: 0x10000B0B4, symSize: 0x3C }
  - { offsetInCU: 0x102B8, offset: 0x19215, size: 0x8, addend: 0x0, symName: __ZNSt3__114__split_bufferINS_12basic_stringIcNS_11char_traitsIcEENS_9allocatorIcEEEERNS4_IS6_EEE7__allocB7v160006Ev, symObjAddr: 0x7E00, symBinAddr: 0x10000B130, symSize: 0x28 }
  - { offsetInCU: 0x102DC, offset: 0x19239, size: 0x8, addend: 0x0, symName: __ZNSt3__114__split_bufferINS_12basic_stringIcNS_11char_traitsIcEENS_9allocatorIcEEEERNS4_IS6_EEE9__end_capB7v160006Ev, symObjAddr: 0x7E28, symBinAddr: 0x10000B158, symSize: 0x28 }
  - { offsetInCU: 0x10300, offset: 0x1925D, size: 0x8, addend: 0x0, symName: __ZNSt3__117__compressed_pairIPNS_12basic_stringIcNS_11char_traitsIcEENS_9allocatorIcEEEERNS4_IS6_EEEC2B7v160006IDnS9_EEOT_OT0_, symObjAddr: 0x7E50, symBinAddr: 0x10000B180, symSize: 0x48 }
  - { offsetInCU: 0x10356, offset: 0x192B3, size: 0x8, addend: 0x0, symName: __ZNSt3__122__compressed_pair_elemIRNS_9allocatorINS_12basic_stringIcNS_11char_traitsIcEENS1_IcEEEEEELi1ELb0EEC2B7v160006IS8_vEEOT_, symObjAddr: 0x7E98, symBinAddr: 0x10000B1C8, symSize: 0x20 }
  - { offsetInCU: 0x10397, offset: 0x192F4, size: 0x8, addend: 0x0, symName: __ZNSt3__19allocatorINS_12basic_stringIcNS_11char_traitsIcEENS0_IcEEEEE8allocateB7v160006Em, symObjAddr: 0x7EB8, symBinAddr: 0x10000B1E8, symSize: 0x8C }
  - { offsetInCU: 0x103C9, offset: 0x19326, size: 0x8, addend: 0x0, symName: __ZNSt3__117__compressed_pairIPNS_12basic_stringIcNS_11char_traitsIcEENS_9allocatorIcEEEERNS4_IS6_EEE6secondB7v160006Ev, symObjAddr: 0x7F44, symBinAddr: 0x10000B274, symSize: 0x28 }
  - { offsetInCU: 0x103ED, offset: 0x1934A, size: 0x8, addend: 0x0, symName: __ZNSt3__122__compressed_pair_elemIRNS_9allocatorINS_12basic_stringIcNS_11char_traitsIcEENS1_IcEEEEEELi1ELb0EE5__getB7v160006Ev, symObjAddr: 0x7F6C, symBinAddr: 0x10000B29C, symSize: 0x18 }
  - { offsetInCU: 0x10411, offset: 0x1936E, size: 0x8, addend: 0x0, symName: __ZNSt3__117__compressed_pairIPNS_12basic_stringIcNS_11char_traitsIcEENS_9allocatorIcEEEERNS4_IS6_EEE5firstB7v160006Ev, symObjAddr: 0x7F84, symBinAddr: 0x10000B2B4, symSize: 0x24 }
  - { offsetInCU: 0x10435, offset: 0x19392, size: 0x8, addend: 0x0, symName: __ZNSt3__116reverse_iteratorIPNS_12basic_stringIcNS_11char_traitsIcEENS_9allocatorIcEEEEEC1B7v160006ES7_, symObjAddr: 0x80DC, symBinAddr: 0x10000B40C, symSize: 0x34 }
  - { offsetInCU: 0x1046B, offset: 0x193C8, size: 0x8, addend: 0x0, symName: __ZNKSt3__116reverse_iteratorIPNS_12basic_stringIcNS_11char_traitsIcEENS_9allocatorIcEEEEE4baseB7v160006Ev, symObjAddr: 0x8110, symBinAddr: 0x10000B440, symSize: 0x18 }
  - { offsetInCU: 0x1048F, offset: 0x193EC, size: 0x8, addend: 0x0, symName: __ZNKSt3__16vectorINS_12basic_stringIcNS_11char_traitsIcEENS_9allocatorIcEEEENS4_IS6_EEE14__annotate_newB7v160006Em, symObjAddr: 0x8164, symBinAddr: 0x10000B494, symSize: 0xC8 }
  - { offsetInCU: 0x104C2, offset: 0x1941F, size: 0x8, addend: 0x0, symName: __ZNSt3__129_AllocatorDestroyRangeReverseINS_9allocatorINS_12basic_stringIcNS_11char_traitsIcEENS1_IcEEEEEENS_16reverse_iteratorIPS6_EEEC1B7v160006ERS7_RSA_SD_, symObjAddr: 0x8288, symBinAddr: 0x10000B5B8, symSize: 0x44 }
  - { offsetInCU: 0x10517, offset: 0x19474, size: 0x8, addend: 0x0, symName: __ZNKSt3__116reverse_iteratorIPNS_12basic_stringIcNS_11char_traitsIcEENS_9allocatorIcEEEEEdeB7v160006Ev, symObjAddr: 0x8338, symBinAddr: 0x10000B668, symSize: 0x28 }
  - { offsetInCU: 0x10549, offset: 0x194A6, size: 0x8, addend: 0x0, symName: __ZNSt3__116reverse_iteratorIPNS_12basic_stringIcNS_11char_traitsIcEENS_9allocatorIcEEEEEppB7v160006Ev, symObjAddr: 0x8360, symBinAddr: 0x10000B690, symSize: 0x20 }
  - { offsetInCU: 0x1056D, offset: 0x194CA, size: 0x8, addend: 0x0, symName: __ZNSt3__128__exception_guard_exceptionsINS_29_AllocatorDestroyRangeReverseINS_9allocatorINS_12basic_stringIcNS_11char_traitsIcEENS2_IcEEEEEENS_16reverse_iteratorIPS7_EEEEE10__completeB7v160006Ev, symObjAddr: 0x8380, symBinAddr: 0x10000B6B0, symSize: 0x1C }
  - { offsetInCU: 0x10591, offset: 0x194EE, size: 0x8, addend: 0x0, symName: __ZNSt3__128__exception_guard_exceptionsINS_29_AllocatorDestroyRangeReverseINS_9allocatorINS_12basic_stringIcNS_11char_traitsIcEENS2_IcEEEEEENS_16reverse_iteratorIPS7_EEEEED1B7v160006Ev, symObjAddr: 0x839C, symBinAddr: 0x10000B6CC, symSize: 0x2C }
  - { offsetInCU: 0x105B9, offset: 0x19516, size: 0x8, addend: 0x0, symName: __ZNSt3__128__exception_guard_exceptionsINS_29_AllocatorDestroyRangeReverseINS_9allocatorINS_12basic_stringIcNS_11char_traitsIcEENS2_IcEEEEEENS_16reverse_iteratorIPS7_EEEEEC1B7v160006ESC_, symObjAddr: 0x83C8, symBinAddr: 0x10000B6F8, symSize: 0x34 }
  - { offsetInCU: 0x105F0, offset: 0x1954D, size: 0x8, addend: 0x0, symName: __ZNSt3__128__exception_guard_exceptionsINS_29_AllocatorDestroyRangeReverseINS_9allocatorINS_12basic_stringIcNS_11char_traitsIcEENS2_IcEEEEEENS_16reverse_iteratorIPS7_EEEEEC2B7v160006ESC_, symObjAddr: 0x83FC, symBinAddr: 0x10000B72C, symSize: 0x30 }
  - { offsetInCU: 0x10627, offset: 0x19584, size: 0x8, addend: 0x0, symName: __ZNSt3__129_AllocatorDestroyRangeReverseINS_9allocatorINS_12basic_stringIcNS_11char_traitsIcEENS1_IcEEEEEENS_16reverse_iteratorIPS6_EEEC2B7v160006ERS7_RSA_SD_, symObjAddr: 0x842C, symBinAddr: 0x10000B75C, symSize: 0x38 }
  - { offsetInCU: 0x10681, offset: 0x195DE, size: 0x8, addend: 0x0, symName: __ZNSt3__119__to_address_helperINS_16reverse_iteratorIPNS_12basic_stringIcNS_11char_traitsIcEENS_9allocatorIcEEEEEEvE6__callB7v160006ERKS9_, symObjAddr: 0x8464, symBinAddr: 0x10000B794, symSize: 0x4C }
  - { offsetInCU: 0x106A3, offset: 0x19600, size: 0x8, addend: 0x0, symName: __ZNKSt3__116reverse_iteratorIPNS_12basic_stringIcNS_11char_traitsIcEENS_9allocatorIcEEEEEptB7v160006Ev, symObjAddr: 0x84B0, symBinAddr: 0x10000B7E0, symSize: 0x24 }
  - { offsetInCU: 0x106C7, offset: 0x19624, size: 0x8, addend: 0x0, symName: __ZNSt3__128__exception_guard_exceptionsINS_29_AllocatorDestroyRangeReverseINS_9allocatorINS_12basic_stringIcNS_11char_traitsIcEENS2_IcEEEEEENS_16reverse_iteratorIPS7_EEEEED2B7v160006Ev, symObjAddr: 0x84D4, symBinAddr: 0x10000B804, symSize: 0x48 }
  - { offsetInCU: 0x106EF, offset: 0x1964C, size: 0x8, addend: 0x0, symName: __ZNKSt3__129_AllocatorDestroyRangeReverseINS_9allocatorINS_12basic_stringIcNS_11char_traitsIcEENS1_IcEEEEEENS_16reverse_iteratorIPS6_EEEclB7v160006Ev, symObjAddr: 0x851C, symBinAddr: 0x10000B84C, symSize: 0xB4 }
  - { offsetInCU: 0x10714, offset: 0x19671, size: 0x8, addend: 0x0, symName: __ZNSt3__116reverse_iteratorINS0_IPNS_12basic_stringIcNS_11char_traitsIcEENS_9allocatorIcEEEEEEEC1B7v160006ES8_, symObjAddr: 0x8640, symBinAddr: 0x10000B970, symSize: 0x3C }
  - { offsetInCU: 0x1074A, offset: 0x196A7, size: 0x8, addend: 0x0, symName: __ZNSt3__116reverse_iteratorINS0_IPNS_12basic_stringIcNS_11char_traitsIcEENS_9allocatorIcEEEEEEEppB7v160006Ev, symObjAddr: 0x8700, symBinAddr: 0x10000BA30, symSize: 0x30 }
  - { offsetInCU: 0x1076E, offset: 0x196CB, size: 0x8, addend: 0x0, symName: __ZNKSt3__116reverse_iteratorINS0_IPNS_12basic_stringIcNS_11char_traitsIcEENS_9allocatorIcEEEEEEE4baseB7v160006Ev, symObjAddr: 0x8730, symBinAddr: 0x10000BA60, symSize: 0x24 }
  - { offsetInCU: 0x10797, offset: 0x196F4, size: 0x8, addend: 0x0, symName: __ZNSt3__119__to_address_helperINS_16reverse_iteratorINS1_IPNS_12basic_stringIcNS_11char_traitsIcEENS_9allocatorIcEEEEEEEEvE6__callB7v160006ERKSA_, symObjAddr: 0x8754, symBinAddr: 0x10000BA84, symSize: 0x4C }
  - { offsetInCU: 0x107B9, offset: 0x19716, size: 0x8, addend: 0x0, symName: __ZNKSt3__116reverse_iteratorINS0_IPNS_12basic_stringIcNS_11char_traitsIcEENS_9allocatorIcEEEEEEEptB7v160006Ev, symObjAddr: 0x87A0, symBinAddr: 0x10000BAD0, symSize: 0x24 }
  - { offsetInCU: 0x107DD, offset: 0x1973A, size: 0x8, addend: 0x0, symName: __ZNKSt3__116reverse_iteratorINS0_IPNS_12basic_stringIcNS_11char_traitsIcEENS_9allocatorIcEEEEEEEdeB7v160006Ev, symObjAddr: 0x87C4, symBinAddr: 0x10000BAF4, symSize: 0x34 }
  - { offsetInCU: 0x1080F, offset: 0x1976C, size: 0x8, addend: 0x0, symName: __ZNSt3__116reverse_iteratorIPNS_12basic_stringIcNS_11char_traitsIcEENS_9allocatorIcEEEEEmmB7v160006Ev, symObjAddr: 0x87F8, symBinAddr: 0x10000BB28, symSize: 0x20 }
  - { offsetInCU: 0x10833, offset: 0x19790, size: 0x8, addend: 0x0, symName: __ZNSt3__116reverse_iteratorINS0_IPNS_12basic_stringIcNS_11char_traitsIcEENS_9allocatorIcEEEEEEEC2B7v160006ES8_, symObjAddr: 0x8818, symBinAddr: 0x10000BB48, symSize: 0x2C }
  - { offsetInCU: 0x10869, offset: 0x197C6, size: 0x8, addend: 0x0, symName: __ZNSt3__116reverse_iteratorIPNS_12basic_stringIcNS_11char_traitsIcEENS_9allocatorIcEEEEEC2B7v160006ES7_, symObjAddr: 0x8844, symBinAddr: 0x10000BB74, symSize: 0x28 }
  - { offsetInCU: 0x1089F, offset: 0x197FC, size: 0x8, addend: 0x0, symName: __ZNSt3__114__split_bufferINS_12basic_stringIcNS_11char_traitsIcEENS_9allocatorIcEEEERNS4_IS6_EEED2Ev, symObjAddr: 0x886C, symBinAddr: 0x10000BB9C, symSize: 0x80 }
  - { offsetInCU: 0x108CA, offset: 0x19827, size: 0x8, addend: 0x0, symName: __ZNSt3__114__split_bufferINS_12basic_stringIcNS_11char_traitsIcEENS_9allocatorIcEEEERNS4_IS6_EEE5clearB7v160006Ev, symObjAddr: 0x88EC, symBinAddr: 0x10000BC1C, symSize: 0x28 }
  - { offsetInCU: 0x108EE, offset: 0x1984B, size: 0x8, addend: 0x0, symName: __ZNKSt3__114__split_bufferINS_12basic_stringIcNS_11char_traitsIcEENS_9allocatorIcEEEERNS4_IS6_EEE8capacityB7v160006Ev, symObjAddr: 0x8914, symBinAddr: 0x10000BC44, symSize: 0x40 }
  - { offsetInCU: 0x10912, offset: 0x1986F, size: 0x8, addend: 0x0, symName: __ZNSt3__114__split_bufferINS_12basic_stringIcNS_11char_traitsIcEENS_9allocatorIcEEEERNS4_IS6_EEE17__destruct_at_endB7v160006EPS6_, symObjAddr: 0x8954, symBinAddr: 0x10000BC84, symSize: 0x2C }
  - { offsetInCU: 0x10944, offset: 0x198A1, size: 0x8, addend: 0x0, symName: __ZNSt3__114__split_bufferINS_12basic_stringIcNS_11char_traitsIcEENS_9allocatorIcEEEERNS4_IS6_EEE17__destruct_at_endB7v160006EPS6_NS_17integral_constantIbLb0EEE, symObjAddr: 0x8980, symBinAddr: 0x10000BCB0, symSize: 0x94 }
  - { offsetInCU: 0x10982, offset: 0x198DF, size: 0x8, addend: 0x0, symName: __ZNKSt3__114__split_bufferINS_12basic_stringIcNS_11char_traitsIcEENS_9allocatorIcEEEERNS4_IS6_EEE9__end_capB7v160006Ev, symObjAddr: 0x8A14, symBinAddr: 0x10000BD44, symSize: 0x28 }
  - { offsetInCU: 0x109A6, offset: 0x19903, size: 0x8, addend: 0x0, symName: __ZNKSt3__117__compressed_pairIPNS_12basic_stringIcNS_11char_traitsIcEENS_9allocatorIcEEEERNS4_IS6_EEE5firstB7v160006Ev, symObjAddr: 0x8A3C, symBinAddr: 0x10000BD6C, symSize: 0x24 }
  - { offsetInCU: 0x109CA, offset: 0x19927, size: 0x8, addend: 0x0, symName: __ZNSt3__116allocator_traitsINS_9allocatorIcEEE37select_on_container_copy_constructionB7v160006IS2_vvEES2_RKS2_, symObjAddr: 0x8A60, symBinAddr: 0x10000BD90, symSize: 0x10 }
  - { offsetInCU: 0x109FA, offset: 0x19957, size: 0x8, addend: 0x0, symName: __ZNSt3__112basic_stringIcNS_11char_traitsIcEENS_9allocatorIcEEEC1B7v160006ENS_24__uninitialized_size_tagEmRKS4_, symObjAddr: 0x8A70, symBinAddr: 0x10000BDA0, symSize: 0x3C }
  - { offsetInCU: 0x10A4C, offset: 0x199A9, size: 0x8, addend: 0x0, symName: __ZNSt3__112basic_stringIcNS_11char_traitsIcEENS_9allocatorIcEEE13__get_pointerB7v160006Ev, symObjAddr: 0x8AC0, symBinAddr: 0x10000BDF0, symSize: 0x54 }
  - { offsetInCU: 0x10A70, offset: 0x199CD, size: 0x8, addend: 0x0, symName: __ZNSt3__111char_traitsIcE4copyEPcPKcm, symObjAddr: 0x8B14, symBinAddr: 0x10000BE44, symSize: 0x80 }
  - { offsetInCU: 0x10AAE, offset: 0x19A0B, size: 0x8, addend: 0x0, symName: __ZNSt3__111char_traitsIcE6assignEPcmc, symObjAddr: 0x8B94, symBinAddr: 0x10000BEC4, symSize: 0x58 }
  - { offsetInCU: 0x10AEC, offset: 0x19A49, size: 0x8, addend: 0x0, symName: __ZNSt3__112basic_stringIcNS_11char_traitsIcEENS_9allocatorIcEEEC2B7v160006ENS_24__uninitialized_size_tagEmRKS4_, symObjAddr: 0x8BEC, symBinAddr: 0x10000BF1C, symSize: 0x118 }
  - { offsetInCU: 0x10B6B, offset: 0x19AC8, size: 0x8, addend: 0x0, symName: __ZNKSt3__112basic_stringIcNS_11char_traitsIcEENS_9allocatorIcEEE20__throw_length_errorB7v160006Ev, symObjAddr: 0x8D04, symBinAddr: 0x10000C034, symSize: 0x1C }
  - { offsetInCU: 0x10B8F, offset: 0x19AEC, size: 0x8, addend: 0x0, symName: __ZNSt3__112basic_stringIcNS_11char_traitsIcEENS_9allocatorIcEEE13__fits_in_ssoB7v160006Em, symObjAddr: 0x8D20, symBinAddr: 0x10000C050, symSize: 0x4C }
  - { offsetInCU: 0x10BE9, offset: 0x19B46, size: 0x8, addend: 0x0, symName: __ZNKSt3__114__copy_trivialclB7v160006IKccLi0EEENS_4pairIPT_PT0_EES5_S5_S7_, symObjAddr: 0x8F9C, symBinAddr: 0x10000C2CC, symSize: 0x48 }
  - { offsetInCU: 0x10C69, offset: 0x19BC6, size: 0x8, addend: 0x0, symName: __ZNSt3__14pairIPKcS2_EC1B7v160006ERKS2_S5_, symObjAddr: 0x9118, symBinAddr: 0x10000C448, symSize: 0x3C }
  - { offsetInCU: 0x10CAD, offset: 0x19C0A, size: 0x8, addend: 0x0, symName: __ZNSt3__14pairIPKcS2_EC2B7v160006ERKS2_S5_, symObjAddr: 0x9154, symBinAddr: 0x10000C484, symSize: 0x34 }
  - { offsetInCU: 0x10CF1, offset: 0x19C4E, size: 0x8, addend: 0x0, symName: __ZNSt3__118__unwrap_iter_implIPKcLb1EE8__unwrapB7v160006ES2_, symObjAddr: 0x9188, symBinAddr: 0x10000C4B8, symSize: 0x24 }
  - { offsetInCU: 0x10D13, offset: 0x19C70, size: 0x8, addend: 0x0, symName: __ZNSt3__14pairIPKcPcEC1B7v160006ERKS2_RKS3_, symObjAddr: 0x9260, symBinAddr: 0x10000C590, symSize: 0x3C }
  - { offsetInCU: 0x10D57, offset: 0x19CB4, size: 0x8, addend: 0x0, symName: __ZNSt3__14pairIPKcPcEC2B7v160006ERKS2_RKS3_, symObjAddr: 0x929C, symBinAddr: 0x10000C5CC, symSize: 0x34 }
  - { offsetInCU: 0x10D9B, offset: 0x19CF8, size: 0x8, addend: 0x0, symName: __ZNSt3__118__unwrap_iter_implIPcLb1EE8__unwrapB7v160006ES1_, symObjAddr: 0x92D0, symBinAddr: 0x10000C600, symSize: 0x24 }
  - { offsetInCU: 0x10DBD, offset: 0x19D1A, size: 0x8, addend: 0x0, symName: __ZNSt3__118__unwrap_iter_implIPKcLb1EE8__rewrapB7v160006ES2_S2_, symObjAddr: 0x9344, symBinAddr: 0x10000C674, symSize: 0x48 }
  - { offsetInCU: 0x10DED, offset: 0x19D4A, size: 0x8, addend: 0x0, symName: __ZNSt3__118__unwrap_iter_implIPcLb1EE8__rewrapB7v160006ES1_S1_, symObjAddr: 0x938C, symBinAddr: 0x10000C6BC, symSize: 0x48 }
  - { offsetInCU: 0x10E1D, offset: 0x19D7A, size: 0x8, addend: 0x0, symName: __ZNSt3__112basic_stringIcNS_11char_traitsIcEENS_9allocatorIcEEE6appendB7v160006ERKS5_, symObjAddr: 0x9490, symBinAddr: 0x10000C7C0, symSize: 0x4C }
  - { offsetInCU: 0x3CA7, offset: 0x1DD1B, size: 0x8, addend: 0x0, symName: __ZNSt3__1lsB7v160006INS_11char_traitsIcEEEERNS_13basic_ostreamIcT_EES6_RKNS_8__iom_t4IcEE, symObjAddr: 0xF9C, symBinAddr: 0x10000D5AC, symSize: 0x40 }
  - { offsetInCU: 0x3CEA, offset: 0x1DD5E, size: 0x8, addend: 0x0, symName: __ZNSt3__1lsB7v160006IcNS_11char_traitsIcEEEERNS_13basic_ostreamIT_T0_EES7_RKNS_8__iom_t6E, symObjAddr: 0xFDC, symBinAddr: 0x10000D5EC, symSize: 0x40 }
  - { offsetInCU: 0x3D39, offset: 0x1DDAD, size: 0x8, addend: 0x0, symName: __ZNSt3__14setwB7v160006Ei, symObjAddr: 0x101C, symBinAddr: 0x10000D62C, symSize: 0x2C }
  - { offsetInCU: 0x3D67, offset: 0x1DDDB, size: 0x8, addend: 0x0, symName: __ZNSt3__17setfillB7v160006IcEENS_8__iom_t4IT_EES2_, symObjAddr: 0x1048, symBinAddr: 0x10000D658, symSize: 0x2C }
  - { offsetInCU: 0x3D9C, offset: 0x1DE10, size: 0x8, addend: 0x0, symName: __ZNSt3__14leftB7v160006ERNS_8ios_baseE, symObjAddr: 0x10B4, symBinAddr: 0x10000D6C4, symSize: 0x30 }
  - { offsetInCU: 0x5FAA, offset: 0x2001E, size: 0x8, addend: 0x0, symName: __ZN6ClientC2Ev, symObjAddr: 0x0, symBinAddr: 0x10000C80C, symSize: 0x194 }
  - { offsetInCU: 0x5FD5, offset: 0x20049, size: 0x8, addend: 0x0, symName: __ZN6ClientC1Ev, symObjAddr: 0x1F8, symBinAddr: 0x10000C9A0, symSize: 0x2C }
  - { offsetInCU: 0x6000, offset: 0x20074, size: 0x8, addend: 0x0, symName: __ZN6ClientD2Ev, symObjAddr: 0x224, symBinAddr: 0x10000C9CC, symSize: 0x108 }
  - { offsetInCU: 0x602B, offset: 0x2009F, size: 0x8, addend: 0x0, symName: __ZN6ClientD1Ev, symObjAddr: 0x32C, symBinAddr: 0x10000CAD4, symSize: 0x2C }
  - { offsetInCU: 0x6056, offset: 0x200CA, size: 0x8, addend: 0x0, symName: __ZN6ClientC2Ei, symObjAddr: 0x358, symBinAddr: 0x10000CB00, symSize: 0x1B8 }
  - { offsetInCU: 0x608E, offset: 0x20102, size: 0x8, addend: 0x0, symName: __ZN6ClientC1Ei, symObjAddr: 0x510, symBinAddr: 0x10000CCB8, symSize: 0x34 }
  - { offsetInCU: 0x60C6, offset: 0x2013A, size: 0x8, addend: 0x0, symName: __ZN6Client9setSocketEi, symObjAddr: 0x544, symBinAddr: 0x10000CCEC, symSize: 0x64 }
  - { offsetInCU: 0x60FB, offset: 0x2016F, size: 0x8, addend: 0x0, symName: __ZN6Client13setRegisteredEb, symObjAddr: 0x5A8, symBinAddr: 0x10000CD50, symSize: 0x2C }
  - { offsetInCU: 0x6130, offset: 0x201A4, size: 0x8, addend: 0x0, symName: __ZN6Client11setNicknameENSt3__112basic_stringIcNS0_11char_traitsIcEENS0_9allocatorIcEEEE, symObjAddr: 0x5D4, symBinAddr: 0x10000CD7C, symSize: 0x5C }
  - { offsetInCU: 0x6166, offset: 0x201DA, size: 0x8, addend: 0x0, symName: __ZN6Client11setUsernameENSt3__112basic_stringIcNS0_11char_traitsIcEENS0_9allocatorIcEEEE, symObjAddr: 0x6FC, symBinAddr: 0x10000CDD8, symSize: 0x5C }
  - { offsetInCU: 0x619C, offset: 0x20210, size: 0x8, addend: 0x0, symName: __ZN6Client11setHostnameENSt3__112basic_stringIcNS0_11char_traitsIcEENS0_9allocatorIcEEEE, symObjAddr: 0x758, symBinAddr: 0x10000CE34, symSize: 0x5C }
  - { offsetInCU: 0x61D2, offset: 0x20246, size: 0x8, addend: 0x0, symName: __ZN6Client11setServnameENSt3__112basic_stringIcNS0_11char_traitsIcEENS0_9allocatorIcEEEE, symObjAddr: 0x7B4, symBinAddr: 0x10000CE90, symSize: 0x30 }
  - { offsetInCU: 0x6208, offset: 0x2027C, size: 0x8, addend: 0x0, symName: __ZN6Client11setRealnameENSt3__112basic_stringIcNS0_11char_traitsIcEENS0_9allocatorIcEEEE, symObjAddr: 0x7E4, symBinAddr: 0x10000CEC0, symSize: 0x5C }
  - { offsetInCU: 0x623E, offset: 0x202B2, size: 0x8, addend: 0x0, symName: __ZN6Client9getSocketEv, symObjAddr: 0x840, symBinAddr: 0x10000CF1C, symSize: 0x18 }
  - { offsetInCU: 0x6265, offset: 0x202D9, size: 0x8, addend: 0x0, symName: __ZN6Client12isRegisteredEv, symObjAddr: 0x858, symBinAddr: 0x10000CF34, symSize: 0x1C }
  - { offsetInCU: 0x628C, offset: 0x20300, size: 0x8, addend: 0x0, symName: __ZN6Client11getNicknameEv, symObjAddr: 0x874, symBinAddr: 0x10000CF50, symSize: 0x3C }
  - { offsetInCU: 0x62B3, offset: 0x20327, size: 0x8, addend: 0x0, symName: __ZN6Client11getUsernameEv, symObjAddr: 0x8B0, symBinAddr: 0x10000CF8C, symSize: 0x3C }
  - { offsetInCU: 0x62DA, offset: 0x2034E, size: 0x8, addend: 0x0, symName: __ZN6Client11getHostnameEv, symObjAddr: 0x8EC, symBinAddr: 0x10000CFC8, symSize: 0x3C }
  - { offsetInCU: 0x6301, offset: 0x20375, size: 0x8, addend: 0x0, symName: __ZN6Client11getServnameEv, symObjAddr: 0x928, symBinAddr: 0x10000D004, symSize: 0x3C }
  - { offsetInCU: 0x6328, offset: 0x2039C, size: 0x8, addend: 0x0, symName: __ZN6Client11getRealnameEv, symObjAddr: 0x964, symBinAddr: 0x10000D040, symSize: 0x3C }
  - { offsetInCU: 0x634F, offset: 0x203C3, size: 0x8, addend: 0x0, symName: __ZN6Client11closeSocketEv, symObjAddr: 0x9A0, symBinAddr: 0x10000D07C, symSize: 0xE8 }
  - { offsetInCU: 0x6384, offset: 0x203F8, size: 0x8, addend: 0x0, symName: __ZN6Client9printInfoEv, symObjAddr: 0xB54, symBinAddr: 0x10000D164, symSize: 0x448 }
  - { offsetInCU: 0x63AB, offset: 0x2041F, size: 0x8, addend: 0x0, symName: __ZNSt3__113basic_ostreamIcNS_11char_traitsIcEEElsB7v160006EPFRNS_8ios_baseES5_E, symObjAddr: 0x1074, symBinAddr: 0x10000D684, symSize: 0x40 }
  - { offsetInCU: 0x63DD, offset: 0x20451, size: 0x8, addend: 0x0, symName: __ZNSt3__18__iom_t6C1B7v160006Ei, symObjAddr: 0x1130, symBinAddr: 0x10000D6F4, symSize: 0x34 }
  - { offsetInCU: 0x6413, offset: 0x20487, size: 0x8, addend: 0x0, symName: __ZNSt3__18__iom_t6C2B7v160006Ei, symObjAddr: 0x1164, symBinAddr: 0x10000D728, symSize: 0x20 }
  - { offsetInCU: 0x6449, offset: 0x204BD, size: 0x8, addend: 0x0, symName: __ZNSt3__18ios_base4setfB7v160006Ejj, symObjAddr: 0x1184, symBinAddr: 0x10000D748, symSize: 0x5C }
  - { offsetInCU: 0x649D, offset: 0x20511, size: 0x8, addend: 0x0, symName: __ZNSt3__18ios_base6unsetfB7v160006Ej, symObjAddr: 0x11E0, symBinAddr: 0x10000D7A4, symSize: 0x28 }
  - { offsetInCU: 0x64EF, offset: 0x20563, size: 0x8, addend: 0x0, symName: __ZNSt3__18__iom_t4IcEC1B7v160006Ec, symObjAddr: 0x23E4, symBinAddr: 0x10000D7CC, symSize: 0x34 }
  - { offsetInCU: 0x6525, offset: 0x20599, size: 0x8, addend: 0x0, symName: __ZNSt3__18__iom_t4IcEC2B7v160006Ec, symObjAddr: 0x2418, symBinAddr: 0x10000D800, symSize: 0x20 }
  - { offsetInCU: 0x655B, offset: 0x205CF, size: 0x8, addend: 0x0, symName: __ZNSt3__19basic_iosIcNS_11char_traitsIcEEE4fillB7v160006Ec, symObjAddr: 0x2438, symBinAddr: 0x10000D820, symSize: 0x74 }
  - { offsetInCU: 0x6199, offset: 0x267DE, size: 0x8, addend: 0x0, symName: __Z7isspacei, symObjAddr: 0x1204, symBinAddr: 0x10000E320, symSize: 0x28 }
  - { offsetInCU: 0x8404, offset: 0x28A49, size: 0x8, addend: 0x0, symName: __ZN8CommandsC2Ev, symObjAddr: 0x0, symBinAddr: 0x10000D894, symSize: 0x14 }
  - { offsetInCU: 0x842F, offset: 0x28A74, size: 0x8, addend: 0x0, symName: __ZN8CommandsC1Ev, symObjAddr: 0x14, symBinAddr: 0x10000D8A8, symSize: 0x2C }
  - { offsetInCU: 0x845A, offset: 0x28A9F, size: 0x8, addend: 0x0, symName: __ZN8CommandsC2ERKS_, symObjAddr: 0x40, symBinAddr: 0x10000D8D4, symSize: 0x18 }
  - { offsetInCU: 0x8493, offset: 0x28AD8, size: 0x8, addend: 0x0, symName: __ZN8CommandsC1ERKS_, symObjAddr: 0x58, symBinAddr: 0x10000D8EC, symSize: 0x34 }
  - { offsetInCU: 0x84CC, offset: 0x28B11, size: 0x8, addend: 0x0, symName: __ZN8CommandsaSERKS_, symObjAddr: 0x8C, symBinAddr: 0x10000D920, symSize: 0x18 }
  - { offsetInCU: 0x8501, offset: 0x28B46, size: 0x8, addend: 0x0, symName: __ZN8CommandsD2Ev, symObjAddr: 0xA4, symBinAddr: 0x10000D938, symSize: 0x14 }
  - { offsetInCU: 0x852C, offset: 0x28B71, size: 0x8, addend: 0x0, symName: __ZN8CommandsD1Ev, symObjAddr: 0xB8, symBinAddr: 0x10000D94C, symSize: 0x2C }
  - { offsetInCU: 0x8557, offset: 0x28B9C, size: 0x8, addend: 0x0, symName: __ZN8Commands15process_commandERNSt3__112basic_stringIcNS0_11char_traitsIcEENS0_9allocatorIcEEEEiR6Server, symObjAddr: 0xE4, symBinAddr: 0x10000D978, symSize: 0x1A4 }
  - { offsetInCU: 0x86A2, offset: 0x28CE7, size: 0x8, addend: 0x0, symName: __ZN8Commands4NICKERNSt3__112basic_stringIcNS0_11char_traitsIcEENS0_9allocatorIcEEEEiR6Server, symObjAddr: 0x964, symBinAddr: 0x10000DB1C, symSize: 0x7E0 }
  - { offsetInCU: 0x8790, offset: 0x28DD5, size: 0x8, addend: 0x0, symName: __ZNKSt3__112basic_stringIcNS_11char_traitsIcEENS_9allocatorIcEEE6lengthB7v160006Ev, symObjAddr: 0x11E0, symBinAddr: 0x10000E2FC, symSize: 0x24 }
  - { offsetInCU: 0x87B4, offset: 0x28DF9, size: 0x8, addend: 0x0, symName: __ZNSt3__112basic_stringIcNS_11char_traitsIcEENS_9allocatorIcEEEixB7v160006Em, symObjAddr: 0x122C, symBinAddr: 0x10000E348, symSize: 0x30 }
  - { offsetInCU: 0x87EB, offset: 0x28E30, size: 0x8, addend: 0x0, symName: __Z8__istypeim, symObjAddr: 0x155C, symBinAddr: 0x10000E378, symSize: 0x8C }
...
